# SymbolsHelper-Confirmed: 4:4.7.4 amd64 armel armhf hurd-i386 i386 ia64 kfreebsd-amd64 kfreebsd-i386 mips mipsel powerpc s390 s390x sparc
libkmahjongglib.so.4 libkmahjongglib4 #MINVER#
 _ZN16KMahjonggTileset11loadDefaultEv@Base 4:4.6.2
 _ZN16KMahjonggTileset11loadTilesetERK7QString@Base 4:4.6.2
 _ZN16KMahjonggTileset12loadGraphicsEv@Base 4:4.6.2
 _ZN16KMahjonggTileset12selectedTileEi@Base 4:4.6.2
 _ZN16KMahjonggTileset13reloadTilesetERK5QSize@Base 4:4.6.2
 _ZN16KMahjonggTileset13renderElementEssRK7QString@Base 4:4.6.2
 _ZN16KMahjonggTileset14unselectedTileEi@Base 4:4.6.2
 _ZN16KMahjonggTileset15updateScaleInfoEss@Base 4:4.6.2
 _ZN16KMahjonggTileset17preferredTileSizeERK5QSizeii@Base 4:4.6.2
 _ZN16KMahjonggTileset19buildElementIdTableEv@Base 4:4.6.2
 _ZN16KMahjonggTileset28pixmapCacheNameFromElementIdERK7QString@Base 4:4.6.2
 _ZN16KMahjonggTileset8tilefaceEi@Base 4:4.6.2
 _ZN16KMahjonggTilesetC1Ev@Base 4:4.6.2
 _ZN16KMahjonggTilesetC2Ev@Base 4:4.6.2
 _ZN16KMahjonggTilesetD1Ev@Base 4:4.6.2
 _ZN16KMahjonggTilesetD2Ev@Base 4:4.6.2
 _ZN19KMahjonggBackground11loadDefaultEv@Base 4:4.6.2
 _ZN19KMahjonggBackground11sizeChangedEii@Base 4:4.6.2
 _ZN19KMahjonggBackground12loadGraphicsEv@Base 4:4.6.2
 _ZN19KMahjonggBackground13getBackgroundEv@Base 4:4.6.2
 _ZN19KMahjonggBackground4loadERK7QStringss@Base 4:4.6.2
 _ZN19KMahjonggBackgroundC1Ev@Base 4:4.6.2
 _ZN19KMahjonggBackgroundC2Ev@Base 4:4.6.2
 _ZN19KMahjonggBackgroundD1Ev@Base 4:4.6.2
 _ZN19KMahjonggBackgroundD2Ev@Base 4:4.6.2
 _ZN21KMahjonggConfigDialog11qt_metacallEN11QMetaObject4CallEiPPv@Base 4:4.6.2
 _ZN21KMahjonggConfigDialog11qt_metacastEPKc@Base 4:4.6.2
 _ZN21KMahjonggConfigDialog14addTilesetPageEv@Base 4:4.6.2
 _ZN21KMahjonggConfigDialog16staticMetaObjectE@Base 4:4.6.2
 _ZN21KMahjonggConfigDialog17addBackgroundPageEv@Base 4:4.6.2
 _ZN21KMahjonggConfigDialog20updateWidgetsDefaultEv@Base 4:4.6.2
 _ZN21KMahjonggConfigDialogC1EP7QWidgetRK7QStringP15KConfigSkeleton@Base 4:4.6.2
 _ZN21KMahjonggConfigDialogC2EP7QWidgetRK7QStringP15KConfigSkeleton@Base 4:4.6.2
 _ZN21KMahjonggConfigDialogD0Ev@Base 4:4.6.2
 _ZN21KMahjonggConfigDialogD1Ev@Base 4:4.6.2
 _ZN21KMahjonggConfigDialogD2Ev@Base 4:4.6.2
#MISSING: 4:4.7.4# (optional=templinst|arch=hurd-i386)_ZNK12KConfigGroup9readEntryIiEET_PKcRKS1_@Base 4:4.6.2
 _ZNK16KMahjonggTileset12levelOffsetXEv@Base 4:4.6.2
 _ZNK16KMahjonggTileset12levelOffsetYEv@Base 4:4.6.2
 _ZNK16KMahjonggTileset14authorPropertyERK7QString@Base 4:4.6.2
 _ZNK16KMahjonggTileset4pathEv@Base 4:4.6.2
 _ZNK16KMahjonggTileset5widthEv@Base 4:4.6.2
 _ZNK16KMahjonggTileset6heightEv@Base 4:4.6.2
 _ZNK16KMahjonggTileset6qWidthEv@Base 4:4.6.2
 _ZNK16KMahjonggTileset7qHeightEv@Base 4:4.6.2
 _ZNK19KMahjonggBackground14authorPropertyERK7QString@Base 4:4.6.2
 _ZNK19KMahjonggBackground4pathEv@Base 4:4.6.2
 _ZNK21KMahjonggConfigDialog10metaObjectEv@Base 4:4.6.2
 _ZTI21KMahjonggConfigDialog@Base 4:4.6.2
 _ZTS21KMahjonggConfigDialog@Base 4:4.6.2
 _ZTV21KMahjonggConfigDialog@Base 4:4.6.2
 (c++)"non-virtual thunk to KMahjonggConfigDialog::~KMahjonggConfigDialog()@Base" 4:4.6.2
