# SymbolsHelper-Confirmed: 4:4.7.2 amd64 armel i386 ia64 kfreebsd-amd64 kfreebsd-i386 mips mipsel powerpc s390 sparc
libkggzgames.so.4 libkggzgames4 #MINVER#
 _ZN15KGGZSeatsDialog11qt_metacallEN11QMetaObject4CallEiPPv@Base 4:4.6.2
 _ZN15KGGZSeatsDialog11qt_metacastEPKc@Base 4:4.6.2
 _ZN15KGGZSeatsDialog16staticMetaObjectE@Base 4:4.6.2
 _ZN15KGGZSeatsDialog6setModEPN7KGGZMod6ModuleE@Base 4:4.6.2
 _ZN15KGGZSeatsDialogC1EP7QWidget@Base 4:4.6.2
 _ZN15KGGZSeatsDialogC2EP7QWidget@Base 4:4.6.2
 _ZN15KGGZSeatsDialogD0Ev@Base 4:4.6.2
 _ZN15KGGZSeatsDialogD1Ev@Base 4:4.6.2
 _ZN15KGGZSeatsDialogD2Ev@Base 4:4.6.2
 _ZN18KGGZRankingsDialog11qt_metacallEN11QMetaObject4CallEiPPv@Base 4:4.6.2
 _ZN18KGGZRankingsDialog11qt_metacastEPKc@Base 4:4.6.2
 _ZN18KGGZRankingsDialog16staticMetaObjectE@Base 4:4.6.2
 _ZN18KGGZRankingsDialogC1EP7QWidget@Base 4:4.6.2
 _ZN18KGGZRankingsDialogC2EP7QWidget@Base 4:4.6.2
 _ZN18KGGZRankingsDialogD0Ev@Base 4:4.6.2
 _ZN18KGGZRankingsDialogD1Ev@Base 4:4.6.2
 _ZN18KGGZRankingsDialogD2Ev@Base 4:4.6.2
 (arch=kfreebsd-amd64 kfreebsd-i386)_ZN7KGGZMod13RankingsEventD1Ev@Base 4:4.7.2
 (arch=kfreebsd-amd64 kfreebsd-i386)_ZN7KGGZMod13RankingsEventD2Ev@Base 4:4.7.2
 _ZNK15KGGZSeatsDialog10metaObjectEv@Base 4:4.6.2
 _ZNK18KGGZRankingsDialog10metaObjectEv@Base 4:4.6.2
 _ZTI15KGGZSeatsDialog@Base 4:4.6.2
 _ZTI18KGGZRankingsDialog@Base 4:4.6.2
 _ZTS15KGGZSeatsDialog@Base 4:4.6.2
 _ZTS18KGGZRankingsDialog@Base 4:4.6.2
 _ZTV15KGGZSeatsDialog@Base 4:4.6.2
 _ZTV18KGGZRankingsDialog@Base 4:4.6.2
 (c++)"non-virtual thunk to KGGZSeatsDialog::~KGGZSeatsDialog()@Base" 4:4.6.2
