# SymbolsHelper-Confirmed: 4:4.6.2 amd64
libkdegames.so.5 libkdegames5a #MINVER#
 _ZN10KCardCache12setBackThemeERK7QString@Base 4:4.6.2
 _ZN10KCardCache13setFrontThemeERK7QString@Base 4:4.6.2
 _ZN10KCardCache18invalidateBacksideEv@Base 4:4.6.2
 _ZN10KCardCache19invalidateFrontsideEv@Base 4:4.6.2
 _ZN10KCardCache7setSizeERK5QSize@Base 4:4.6.2
 _ZN10KCardCache9loadThemeE6QFlagsINS_8LoadInfoEE@Base 4:4.6.2
 _ZN10KCardCacheC1Ev@Base 4:4.6.2
 _ZN10KCardCacheC2Ev@Base 4:4.6.2
 _ZN10KCardCacheD1Ev@Base 4:4.6.2
 _ZN10KCardCacheD2Ev@Base 4:4.6.2
 _ZN10KGameClock11qt_metacallEN11QMetaObject4CallEiPPv@Base 4:4.6.2
 _ZN10KGameClock11qt_metacastEPKc@Base 4:4.6.2
 _ZN10KGameClock11timeChangedERK7QString@Base 4:4.6.2
 _ZN10KGameClock12timeoutClockEv@Base 4:4.6.2
 _ZN10KGameClock16staticMetaObjectE@Base 4:4.6.2
 _ZN10KGameClock5pauseEv@Base 4:4.6.2
 _ZN10KGameClock6resumeEv@Base 4:4.6.2
 _ZN10KGameClock7restartEv@Base 4:4.6.2
 _ZN10KGameClock7setTimeERK7QString@Base 4:4.6.2
 _ZN10KGameClock7setTimeEj@Base 4:4.6.2
 _ZN10KGameClock8showTimeEv@Base 4:4.6.2
 _ZN10KGameClockC1EP7QObjectNS_9ClockTypeE@Base 4:4.6.2
 _ZN10KGameClockC2EP7QObjectNS_9ClockTypeE@Base 4:4.6.2
 _ZN10KGameClockD0Ev@Base 4:4.6.2
 _ZN10KGameClockD1Ev@Base 4:4.6.2
 _ZN10KGameClockD2Ev@Base 4:4.6.2
 _ZN10KGameKeyIO11eventFilterEP7QObjectP6QEvent@Base 4:4.6.2
 _ZN10KGameKeyIO11qt_metacallEN11QMetaObject4CallEiPPv@Base 4:4.6.2
 _ZN10KGameKeyIO11qt_metacastEPKc@Base 4:4.6.2
 _ZN10KGameKeyIO14signalKeyEventEP7KGameIOR11QDataStreamP9QKeyEventPb@Base 4:4.6.2
 _ZN10KGameKeyIO16staticMetaObjectE@Base 4:4.6.2
 _ZN10KGameKeyIOC1EP7QWidget@Base 4:4.6.2
 _ZN10KGameKeyIOC2EP7QWidget@Base 4:4.6.2
 _ZN10KGameKeyIOD0Ev@Base 4:4.6.2
 _ZN10KGameKeyIOD1Ev@Base 4:4.6.2
 _ZN10KGameKeyIOD2Ev@Base 4:4.6.2
 _ZN10KGameTheme11loadDefaultEv@Base 4:4.6.2
 _ZN10KGameTheme4loadERK7QString@Base 4:4.6.2
 _ZN10KGameThemeC1ERK7QString@Base 4:4.6.2
 _ZN10KGameThemeC2ERK7QString@Base 4:4.6.2
 _ZN10KGameThemeD0Ev@Base 4:4.6.2
 _ZN10KGameThemeD1Ev@Base 4:4.6.2
 _ZN10KGameThemeD2Ev@Base 4:4.6.2
 _ZN10KHighscore10writeEntryEiRK7QStringRK8QVariant@Base 4:4.6.2
 _ZN10KHighscore10writeEntryEiRK7QStringS2_@Base 4:4.6.2
 _ZN10KHighscore10writeEntryEiRK7QStringi@Base 4:4.6.2
 _ZN10KHighscore11qt_metacallEN11QMetaObject4CallEiPPv@Base 4:4.6.2
 _ZN10KHighscore11qt_metacastEPKc@Base 4:4.6.2
 _ZN10KHighscore14lockForWritingEP7QWidget@Base 4:4.6.2
 _ZN10KHighscore14writeAndUnlockEv@Base 4:4.6.2
 _ZN10KHighscore16staticMetaObjectE@Base 4:4.6.2
 _ZN10KHighscore17readCurrentConfigEv@Base 4:4.6.2
 _ZN10KHighscore17setHighscoreGroupERK7QString@Base 4:4.6.2
 _ZN10KHighscore4initEPKc@Base 4:4.6.2
 _ZN10KHighscore4initEb@Base 4:4.6.2
 _ZN10KHighscore9writeListERK7QStringRK11QStringList@Base 4:4.6.2
 _ZN10KHighscoreC1EbP7QObject@Base 4:4.6.2
 _ZN10KHighscoreC2EbP7QObject@Base 4:4.6.2
 _ZN10KHighscoreD0Ev@Base 4:4.6.2
 _ZN10KHighscoreD1Ev@Base 4:4.6.2
 _ZN10KHighscoreD2Ev@Base 4:4.6.2
 _ZN10KMessageIO11qt_metacallEN11QMetaObject4CallEiPPv@Base 4:4.6.2
 _ZN10KMessageIO11qt_metacastEPKc@Base 4:4.6.2
 _ZN10KMessageIO16connectionBrokenEv@Base 4:4.6.2
 _ZN10KMessageIO16staticMetaObjectE@Base 4:4.6.2
 _ZN10KMessageIO2idEv@Base 4:4.6.2
 _ZN10KMessageIO5setIdEj@Base 4:4.6.2
 _ZN10KMessageIO8receivedERK10QByteArray@Base 4:4.6.2
 _ZN10KMessageIOC1EP7QObject@Base 4:4.6.2
 _ZN10KMessageIOC2EP7QObject@Base 4:4.6.2
 _ZN10KMessageIOD0Ev@Base 4:4.6.2
 _ZN10KMessageIOD1Ev@Base 4:4.6.2
 _ZN10KMessageIOD2Ev@Base 4:4.6.2
 _ZN11KCardDialog11qt_metacallEN11QMetaObject4CallEiPPv@Base 4:4.6.2
 _ZN11KCardDialog11qt_metacastEPKc@Base 4:4.6.2
 _ZN11KCardDialog16staticMetaObjectE@Base 4:4.6.2
 _ZN11KCardDialogC1EP11KCardWidget@Base 4:4.6.2
 _ZN11KCardDialogC2EP11KCardWidget@Base 4:4.6.2
 _ZN11KCardWidget10updateBackEv@Base 4:4.6.2
 _ZN11KCardWidget11qt_metacallEN11QMetaObject4CallEiPPv@Base 4:4.6.2
 _ZN11KCardWidget11qt_metacastEPKc@Base 4:4.6.2
 _ZN11KCardWidget11setBackNameERK7QString@Base 4:4.6.2
 _ZN11KCardWidget11updateFrontEv@Base 4:4.6.2
 _ZN11KCardWidget12readSettingsERK12KConfigGroup@Base 4:4.6.2
 _ZN11KCardWidget12setFrontNameERK7QString@Base 4:4.6.2
 _ZN11KCardWidget12setNotLockedEb@Base 4:4.6.2
 _ZN11KCardWidget15insertCardIconsEv@Base 4:4.6.2
 _ZN11KCardWidget15insertDeckIconsEv@Base 4:4.6.2
 _ZN11KCardWidget16staticMetaObjectE@Base 4:4.6.2
 _ZN11KCardWidget19setFixedSizeAllowedEb@Base 4:4.6.2
 _ZN11KCardWidget8setupGUIEv@Base 4:4.6.2
 _ZN11KCardWidget9setLockedEb@Base 4:4.6.2
 _ZN11KCardWidgetC1EP7QWidget@Base 4:4.6.2
 _ZN11KCardWidgetC2EP7QWidget@Base 4:4.6.2
 _ZN11KCardWidgetD0Ev@Base 4:4.6.2
 _ZN11KCardWidgetD1Ev@Base 4:4.6.2
 _ZN11KCardWidgetD2Ev@Base 4:4.6.2
 _ZN11KChatDialog11qt_metacallEN11QMetaObject4CallEiPPv@Base 4:4.6.2
 _ZN11KChatDialog11qt_metacastEPKc@Base 4:4.6.2
 _ZN11KChatDialog11setNameFontE5QFont@Base 4:4.6.2
 _ZN11KChatDialog11setTextFontE5QFont@Base 4:4.6.2
 _ZN11KChatDialog14plugChatWidgetEP9KChatBaseb@Base 4:4.6.2
 _ZN11KChatDialog14setMaxMessagesEi@Base 4:4.6.2
 _ZN11KChatDialog15slotGetNameFontEv@Base 4:4.6.2
 _ZN11KChatDialog15slotGetTextFontEv@Base 4:4.6.2
 _ZN11KChatDialog16staticMetaObjectE@Base 4:4.6.2
 _ZN11KChatDialog17setSystemNameFontE5QFont@Base 4:4.6.2
 _ZN11KChatDialog17setSystemTextFontE5QFont@Base 4:4.6.2
 _ZN11KChatDialog19configureChatWidgetEP9KChatBase@Base 4:4.6.2
 _ZN11KChatDialog21slotGetSystemNameFontEv@Base 4:4.6.2
 _ZN11KChatDialog21slotGetSystemTextFontEv@Base 4:4.6.2
 _ZN11KChatDialog4initEv@Base 4:4.6.2
 _ZN11KChatDialog6slotOkEv@Base 4:4.6.2
 _ZN11KChatDialog9slotApplyEv@Base 4:4.6.2
 _ZN11KChatDialogC1EP7QWidgetb@Base 4:4.6.2
 _ZN11KChatDialogC1EP9KChatBaseP7QWidgetb@Base 4:4.6.2
 _ZN11KChatDialogC2EP7QWidgetb@Base 4:4.6.2
 _ZN11KChatDialogC2EP9KChatBaseP7QWidgetb@Base 4:4.6.2
 _ZN11KChatDialogD0Ev@Base 4:4.6.2
 _ZN11KChatDialogD1Ev@Base 4:4.6.2
 _ZN11KChatDialogD2Ev@Base 4:4.6.2
 _ZN11KGameDialog10configPageENS_13ConfigOptionsE@Base 4:4.6.2
 _ZN11KGameDialog11qt_metacallEN11QMetaObject4CallEiPPv@Base 4:4.6.2
 _ZN11KGameDialog11qt_metacastEPKc@Base 4:4.6.2
 _ZN11KGameDialog11slotDefaultEv@Base 4:4.6.2
 _ZN11KGameDialog13addChatWidgetEP21KGameDialogChatConfigP5KVBox@Base 4:4.6.2
 _ZN11KGameDialog13addConfigPageEP17KGameDialogConfigRK7QString@Base 4:4.6.2
 _ZN11KGameDialog13addGameConfigEP24KGameDialogGeneralConfig@Base 4:4.6.2
 _ZN11KGameDialog13submitToKGameEv@Base 4:4.6.2
 _ZN11KGameDialog14slotUnsetKGameEv@Base 4:4.6.2
 _ZN11KGameDialog15addConfigWidgetEP17KGameDialogConfigP7QWidget@Base 4:4.6.2
 _ZN11KGameDialog16addNetworkConfigEP24KGameDialogNetworkConfig@Base 4:4.6.2
 _ZN11KGameDialog16staticMetaObjectE@Base 4:4.6.2
 _ZN11KGameDialog17addConnectionListEP27KGameDialogConnectionConfigP5KVBox@Base 4:4.6.2
 _ZN11KGameDialog17initDefaultDialogENS_13ConfigOptionsEi@Base 4:4.6.2
 _ZN11KGameDialog18addMsgServerConfigEP26KGameDialogMsgServerConfig@Base 4:4.6.2
 _ZN11KGameDialog22slotRemoveConfigWidgetEP7QObject@Base 4:4.6.2
 _ZN11KGameDialog4initEP5KGameP7KPlayer@Base 4:4.6.2
 _ZN11KGameDialog6slotOkEv@Base 4:4.6.2
 _ZN11KGameDialog8setAdminEb@Base 4:4.6.2
 _ZN11KGameDialog8setKGameEP5KGame@Base 4:4.6.2
 _ZN11KGameDialog8setOwnerEP7KPlayer@Base 4:4.6.2
 _ZN11KGameDialog9slotApplyEv@Base 4:4.6.2
 _ZN11KGameDialogC1EP5KGameP7KPlayerRK7QStringP7QWidgetb@Base 4:4.6.2
 _ZN11KGameDialogC1EP5KGameP7KPlayerRK7QStringP7QWidgetlib@Base 4:4.6.2
 _ZN11KGameDialogC2EP5KGameP7KPlayerRK7QStringP7QWidgetb@Base 4:4.6.2
 _ZN11KGameDialogC2EP5KGameP7KPlayerRK7QStringP7QWidgetlib@Base 4:4.6.2
 _ZN11KGameDialogD0Ev@Base 4:4.6.2
 _ZN11KGameDialogD1Ev@Base 4:4.6.2
 _ZN11KGameDialogD2Ev@Base 4:4.6.2
 _ZN12CardDeckInfo10frontNamesEv@Base 4:4.6.2
 _ZN12CardDeckInfo10frontThemeERK12KConfigGroupRK7QString@Base 4:4.6.2
 _ZN12CardDeckInfo10isSVGFrontERK7QString@Base 4:4.6.2
 _ZN12CardDeckInfo12backFilenameERK7QString@Base 4:4.6.2
 _ZN12CardDeckInfo14randomBackNameEb@Base 4:4.6.2
 _ZN12CardDeckInfo14writeBackThemeER12KConfigGroupRK7QString@Base 4:4.6.2
 _ZN12CardDeckInfo15backSVGFilePathERK7QString@Base 4:4.6.2
 _ZN12CardDeckInfo15defaultBackNameEb@Base 4:4.6.2
 _ZN12CardDeckInfo15randomFrontNameEb@Base 4:4.6.2
 _ZN12CardDeckInfo15writeFrontThemeER12KConfigGroupRK7QString@Base 4:4.6.2
 _ZN12CardDeckInfo16defaultFrontNameEb@Base 4:4.6.2
 _ZN12CardDeckInfo16frontSVGFilePathERK7QString@Base 4:4.6.2
 _ZN12CardDeckInfo19allowFixedSizeDecksERK12KConfigGroupb@Base 4:4.6.2
 _ZN12CardDeckInfo19lockFrontToBacksideERK12KConfigGroupb@Base 4:4.6.2
 _ZN12CardDeckInfo24writeAllowFixedSizeDecksER12KConfigGroupb@Base 4:4.6.2
 _ZN12CardDeckInfo24writeLockFrontToBacksideER12KConfigGroupb@Base 4:4.6.2
 _ZN12CardDeckInfo8frontDirERK7QString@Base 4:4.6.2
 _ZN12CardDeckInfo9backNamesEv@Base 4:4.6.2
 _ZN12CardDeckInfo9backThemeERK12KConfigGroupRK7QString@Base 4:4.6.2
 _ZN12CardDeckInfo9isSVGBackERK7QString@Base 4:4.6.2
 _ZN12KGameLCDList11qt_metacallEN11QMetaObject4CallEiPPv@Base 4:4.6.2
 _ZN12KGameLCDList11qt_metacastEPKc@Base 4:4.6.2
 _ZN12KGameLCDList16staticMetaObjectE@Base 4:4.6.2
 _ZN12KGameLCDList4initERK7QString@Base 4:4.6.2
 _ZN12KGameLCDList5clearEv@Base 4:4.6.2
 _ZN12KGameLCDList6appendEP10QLCDNumber@Base 4:4.6.2
 _ZN12KGameLCDList6appendERK7QStringP10QLCDNumber@Base 4:4.6.2
 _ZN12KGameLCDListC1EP7QWidget@Base 4:4.6.2
 _ZN12KGameLCDListC1ERK7QStringP7QWidget@Base 4:4.6.2
 _ZN12KGameLCDListC2EP7QWidget@Base 4:4.6.2
 _ZN12KGameLCDListC2ERK7QStringP7QWidget@Base 4:4.6.2
 _ZN12KGameLCDListD0Ev@Base 4:4.6.2
 _ZN12KGameLCDListD1Ev@Base 4:4.6.2
 _ZN12KGameLCDListD2Ev@Base 4:4.6.2
 _ZN12KGameMessage11rawPlayerIdEj@Base 4:4.6.2
 _ZN12KGameMessage12createHeaderER11QDataStreamjji@Base 4:4.6.2
 _ZN12KGameMessage13extractHeaderER11QDataStreamRjS2_Ri@Base 4:4.6.2
 _ZN12KGameMessage14createPlayerIdEij@Base 4:4.6.2
 _ZN12KGameMessage14messageId2TextEi@Base 4:4.6.2
 _ZN12KGameMessage20createPropertyHeaderER11QDataStreami@Base 4:4.6.2
 _ZN12KGameMessage21createPropertyCommandER11QDataStreamiii@Base 4:4.6.2
 _ZN12KGameMessage21extractPropertyHeaderER11QDataStreamRi@Base 4:4.6.2
 _ZN12KGameMessage22extractPropertyCommandER11QDataStreamRiS2_@Base 4:4.6.2
 _ZN12KGameMessage6isGameEj@Base 4:4.6.2
 _ZN12KGameMessage7versionEv@Base 4:4.6.2
 _ZN12KGameMessage8isPlayerEj@Base 4:4.6.2
 _ZN12KGameMessage9rawGameIdEj@Base 4:4.6.2
 _ZN12KGameMouseIO11eventFilterEP7QObjectP6QEvent@Base 4:4.6.2
 _ZN12KGameMouseIO11qt_metacallEN11QMetaObject4CallEiPPv@Base 4:4.6.2
 _ZN12KGameMouseIO11qt_metacastEPKc@Base 4:4.6.2
 _ZN12KGameMouseIO16setMouseTrackingEb@Base 4:4.6.2
 _ZN12KGameMouseIO16signalMouseEventEP7KGameIOR11QDataStreamP11QMouseEventPb@Base 4:4.6.2
 _ZN12KGameMouseIO16staticMetaObjectE@Base 4:4.6.2
 _ZN12KGameMouseIOC1EP14QGraphicsSceneb@Base 4:4.6.2
 _ZN12KGameMouseIOC1EP7QWidgetb@Base 4:4.6.2
 _ZN12KGameMouseIOC2EP14QGraphicsSceneb@Base 4:4.6.2
 _ZN12KGameMouseIOC2EP7QWidgetb@Base 4:4.6.2
 _ZN12KGameMouseIOD0Ev@Base 4:4.6.2
 _ZN12KGameMouseIOD1Ev@Base 4:4.6.2
 _ZN12KGameMouseIOD2Ev@Base 4:4.6.2
 _ZN12KGameNetwork10disconnectEv@Base 4:4.6.2
 _ZN12KGameNetwork10electAdminEj@Base 4:4.6.2
 _ZN12KGameNetwork10tryPublishEv@Base 4:4.6.2
 _ZN12KGameNetwork11qt_metacallEN11QMetaObject4CallEiPPv@Base 4:4.6.2
 _ZN12KGameNetwork11qt_metacastEPKc@Base 4:4.6.2
 _ZN12KGameNetwork11sendMessageERK10QByteArrayijj@Base 4:4.6.2
 _ZN12KGameNetwork11sendMessageERK11QDataStreamijj@Base 4:4.6.2
 _ZN12KGameNetwork11sendMessageERK7QStringijj@Base 4:4.6.2
 _ZN12KGameNetwork11sendMessageEiijj@Base 4:4.6.2
 _ZN12KGameNetwork13setMaxClientsEi@Base 4:4.6.2
 _ZN12KGameNetwork15connectToServerEP10KMessageIO@Base 4:4.6.2
 _ZN12KGameNetwork15connectToServerERK7QStringt@Base 4:4.6.2
 _ZN12KGameNetwork16offerConnectionsEt@Base 4:4.6.2
 _ZN12KGameNetwork16setDiscoveryInfoERK7QStringS2_@Base 4:4.6.2
 _ZN12KGameNetwork16staticMetaObjectE@Base 4:4.6.2
 _ZN12KGameNetwork17sendSystemMessageERK10QByteArrayijj@Base 4:4.6.2
 _ZN12KGameNetwork17sendSystemMessageERK11QDataStreamijj@Base 4:4.6.2
 _ZN12KGameNetwork17sendSystemMessageERK7QStringijj@Base 4:4.6.2
 _ZN12KGameNetwork17sendSystemMessageEiijj@Base 4:4.6.2
 _ZN12KGameNetwork17tryStopPublishingEv@Base 4:4.6.2
 _ZN12KGameNetwork19slotResetConnectionEv@Base 4:4.6.2
 _ZN12KGameNetwork20stopServerConnectionEv@Base 4:4.6.2
 _ZN12KGameNetwork21aboutToLoseConnectionEj@Base 4:4.6.2
 _ZN12KGameNetwork21signalClientConnectedEj@Base 4:4.6.2
 _ZN12KGameNetwork22signalConnectionBrokenEv@Base 4:4.6.2
 _ZN12KGameNetwork22slotAdminStatusChangedEb@Base 4:4.6.2
 _ZN12KGameNetwork24signalAdminStatusChangedEb@Base 4:4.6.2
 _ZN12KGameNetwork24signalClientDisconnectedEjb@Base 4:4.6.2
 _ZN12KGameNetwork25signalNetworkErrorMessageEi7QString@Base 4:4.6.2
 _ZN12KGameNetwork26receiveNetworkTransmissionERK10QByteArrayj@Base 4:4.6.2
 _ZN12KGameNetwork4lockEv@Base 4:4.6.2
 _ZN12KGameNetwork5DebugEv@Base 4:4.6.2
 _ZN12KGameNetwork6unlockEv@Base 4:4.6.2
 _ZN12KGameNetwork9sendErrorEiRK10QByteArrayjj@Base 4:4.6.2
 _ZN12KGameNetwork9setMasterEv@Base 4:4.6.2
 _ZN12KGameNetworkC1EiP7QObject@Base 4:4.6.2
 _ZN12KGameNetworkC2EiP7QObject@Base 4:4.6.2
 _ZN12KGameNetworkD0Ev@Base 4:4.6.2
 _ZN12KGameNetworkD1Ev@Base 4:4.6.2
 _ZN12KGameNetworkD2Ev@Base 4:4.6.2
 _ZN12KGameProcess10signalInitER11QDataStreami@Base 4:4.6.2
 _ZN12KGameProcess10signalTurnER11QDataStreamb@Base 4:4.6.2
 _ZN12KGameProcess11processArgsEiPPc@Base 4:4.6.2
 _ZN12KGameProcess11qt_metacallEN11QMetaObject4CallEiPPv@Base 4:4.6.2
 _ZN12KGameProcess11qt_metacastEPKc@Base 4:4.6.2
 _ZN12KGameProcess11sendMessageER11QDataStreamij@Base 4:4.6.2
 _ZN12KGameProcess13signalCommandER11QDataStreamiii@Base 4:4.6.2
 _ZN12KGameProcess15receivedMessageERK10QByteArray@Base 4:4.6.2
 _ZN12KGameProcess16staticMetaObjectE@Base 4:4.6.2
 _ZN12KGameProcess17sendSystemMessageER11QDataStreamij@Base 4:4.6.2
 _ZN12KGameProcess4execEiPPc@Base 4:4.6.2
 _ZN12KGameProcess6randomEv@Base 4:4.6.2
 _ZN12KGameProcessC1Ev@Base 4:4.6.2
 _ZN12KGameProcessC2Ev@Base 4:4.6.2
 _ZN12KGameProcessD0Ev@Base 4:4.6.2
 _ZN12KGameProcessD1Ev@Base 4:4.6.2
 _ZN12KGameProcessD2Ev@Base 4:4.6.2
 _ZN12KScoreDialog10setCommentERK7QString@Base 4:4.6.2
 _ZN12KScoreDialog11qt_metacallEN11QMetaObject4CallEiPPv@Base 4:4.6.2
 _ZN12KScoreDialog11qt_metacastEPKc@Base 4:4.6.2
 _ZN12KScoreDialog11slotGotNameEv@Base 4:4.6.2
 _ZN12KScoreDialog13keyPressEventEP9QKeyEvent@Base 4:4.6.2
 _ZN12KScoreDialog13slotGotReturnEv@Base 4:4.6.2
 _ZN12KScoreDialog14setConfigGroupERK5QPairI10QByteArray7QStringE@Base 4:4.6.2
 _ZN12KScoreDialog14setConfigGroupERK7QString@Base 4:4.6.2
 _ZN12KScoreDialog15slotForgetScoreEv@Base 4:4.6.2
 _ZN12KScoreDialog16staticMetaObjectE@Base 4:4.6.2
 _ZN12KScoreDialog19KScoreDialogPrivate10loadScoresEv@Base 4:4.6.2
 _ZN12KScoreDialog19KScoreDialogPrivate10saveScoresEv@Base 4:4.6.2
 _ZN12KScoreDialog19KScoreDialogPrivate10setupGroupERK10QByteArray@Base 4:4.6.2
 _ZN12KScoreDialog19KScoreDialogPrivate11aboutToShowEv@Base 4:4.6.2
 _ZN12KScoreDialog19KScoreDialogPrivate11setupDialogEv@Base 4:4.6.2
 _ZN12KScoreDialog19KScoreDialogPrivate23findTranslatedGroupNameERK10QByteArray@Base 4:4.6.2
 _ZN12KScoreDialog21setConfigGroupWeightsERK4QMapIi10QByteArrayE@Base 4:4.6.2
 _ZN12KScoreDialog21setHiddenConfigGroupsERK5QListI10QByteArrayE@Base 4:4.6.2
 _ZN12KScoreDialog27addLocalizedConfigGroupNameERK5QPairI10QByteArray7QStringE@Base 4:4.6.2
 _ZN12KScoreDialog28addLocalizedConfigGroupNamesERK4QMapI10QByteArray7QStringE@Base 4:4.6.2
 _ZN12KScoreDialog4execEv@Base 4:4.6.2
 _ZN12KScoreDialog4showEv@Base 4:4.6.2
 _ZN12KScoreDialog8addFieldEiRK7QStringS2_@Base 4:4.6.2
 _ZN12KScoreDialog8addScoreERK4QMapIi7QStringERK6QFlagsINS_12AddScoreFlagEE@Base 4:4.6.2
 _ZN12KScoreDialog8addScoreEiRK6QFlagsINS_12AddScoreFlagEE@Base 4:4.6.2
 _ZN12KScoreDialog9hideFieldEi@Base 4:4.6.2
 _ZN12KScoreDialog9highScoreEv@Base 4:4.6.2
 _ZN12KScoreDialogC1EiP7QWidget@Base 4:4.6.2
 _ZN12KScoreDialogC2EiP7QWidget@Base 4:4.6.2
 _ZN12KScoreDialogD0Ev@Base 4:4.6.2
 _ZN12KScoreDialogD1Ev@Base 4:4.6.2
 _ZN12KScoreDialogD2Ev@Base 4:4.6.2
 _ZN13KExtHighscore10firstScoreEv@Base 4:4.6.2
 _ZN13KExtHighscore11setGameTypeEj@Base 4:4.6.2
 _ZN13KExtHighscore11submitScoreERKNS_5ScoreEP7QWidget@Base 4:4.6.2
 _ZN13KExtHighscore17MultiplayerScores14setPlayerCountEj@Base 4:4.6.2
 _ZN13KExtHighscore17MultiplayerScores4showEP7QWidget@Base 4:4.6.2
 _ZN13KExtHighscore17MultiplayerScores5clearEv@Base 4:4.6.2
 _ZN13KExtHighscore17MultiplayerScores7setNameEjRK7QString@Base 4:4.6.2
 _ZN13KExtHighscore17MultiplayerScores8addScoreEjRKNS_5ScoreE@Base 4:4.6.2
 _ZN13KExtHighscore17MultiplayerScoresC1Ev@Base 4:4.6.2
 _ZN13KExtHighscore17MultiplayerScoresC2Ev@Base 4:4.6.2
 _ZN13KExtHighscore17MultiplayerScoresD1Ev@Base 4:4.6.2
 _ZN13KExtHighscore17MultiplayerScoresD2Ev@Base 4:4.6.2
 _ZN13KExtHighscore4Item10timeFormatEj@Base 4:4.6.2
 _ZN13KExtHighscore4Item15setPrettyFormatENS0_6FormatE@Base 4:4.6.2
 _ZN13KExtHighscore4Item16setPrettySpecialENS0_7SpecialE@Base 4:4.6.2
 _ZN13KExtHighscore4ItemC1ERK8QVariantRK7QStringN2Qt13AlignmentFlagE@Base 4:4.6.2
 _ZN13KExtHighscore4ItemC2ERK8QVariantRK7QStringN2Qt13AlignmentFlagE@Base 4:4.6.2
 _ZN13KExtHighscore4ItemD0Ev@Base 4:4.6.2
 _ZN13KExtHighscore4ItemD1Ev@Base 4:4.6.2
 _ZN13KExtHighscore4ItemD2Ev@Base 4:4.6.2
 _ZN13KExtHighscore4showEP7QWidget@Base 4:4.6.2
 _ZN13KExtHighscore5Score7setDataERK7QStringRK8QVariant@Base 4:4.6.2
 _ZN13KExtHighscore5ScoreC1ENS_9ScoreTypeE@Base 4:4.6.2
 _ZN13KExtHighscore5ScoreC2ENS_9ScoreTypeE@Base 4:4.6.2
 _ZN13KExtHighscore5ScoreD1Ev@Base 4:4.6.2
 _ZN13KExtHighscore5ScoreD2Ev@Base 4:4.6.2
 _ZN13KExtHighscore5ScoreltERKS0_@Base 4:4.6.2
 _ZN13KExtHighscore7Manager10createItemENS0_8ItemTypeE@Base 4:4.6.2
 _ZN13KExtHighscore7Manager11setShowModeENS0_8ShowModeE@Base 4:4.6.2
 _ZN13KExtHighscore7Manager12addScoreItemERK7QStringPNS_4ItemE@Base 4:4.6.2
 _ZN13KExtHighscore7Manager12setScoreItemEjPNS_4ItemE@Base 4:4.6.2
 _ZN13KExtHighscore7Manager12setScoreTypeENS0_9ScoreTypeE@Base 4:4.6.2
 _ZN13KExtHighscore7Manager13addToQueryURLER4KUrlRK7QStringS5_@Base 4:4.6.2
 _ZN13KExtHighscore7Manager13setPlayerItemENS0_14PlayerItemTypeEPNS_4ItemE@Base 4:4.6.2
 _ZN13KExtHighscore7Manager15setWWHighscoresERK4KUrlRK7QString@Base 4:4.6.2
 _ZN13KExtHighscore7Manager17setScoreHistogramERK7QVectorIjENS0_14ScoreTypeBoundE@Base 4:4.6.2
 _ZN13KExtHighscore7Manager17setShowStatisticsEb@Base 4:4.6.2
 _ZN13KExtHighscore7Manager17setTrackDrawGamesEb@Base 4:4.6.2
 _ZN13KExtHighscore7Manager17setTrackLostGamesEb@Base 4:4.6.2
 _ZN13KExtHighscore7Manager25setShowDrawGamesStatisticEb@Base 4:4.6.2
 _ZN13KExtHighscore7ManagerC1Ejj@Base 4:4.6.2
 _ZN13KExtHighscore7ManagerC2Ejj@Base 4:4.6.2
 _ZN13KExtHighscore7ManagerD0Ev@Base 4:4.6.2
 _ZN13KExtHighscore7ManagerD1Ev@Base 4:4.6.2
 _ZN13KExtHighscore7ManagerD2Ev@Base 4:4.6.2
 _ZN13KExtHighscore8gameTypeEv@Base 4:4.6.2
 _ZN13KExtHighscore9configureEP7QWidget@Base 4:4.6.2
 _ZN13KExtHighscore9lastScoreEv@Base 4:4.6.2
 _ZN13KExtHighscorelsER11QDataStreamRKNS_17MultiplayerScoresE@Base 4:4.6.2
 _ZN13KExtHighscorelsER11QDataStreamRKNS_5ScoreE@Base 4:4.6.2
 _ZN13KExtHighscorersER11QDataStreamRNS_17MultiplayerScoresE@Base 4:4.6.2
 _ZN13KExtHighscorersER11QDataStreamRNS_5ScoreE@Base 4:4.6.2
 _ZN13KGameLCDClock11qt_metacallEN11QMetaObject4CallEiPPv@Base 4:4.6.2
 _ZN13KGameLCDClock11qt_metacastEPKc@Base 4:4.6.2
 _ZN13KGameLCDClock12timeoutClockEv@Base 4:4.6.2
 _ZN13KGameLCDClock16staticMetaObjectE@Base 4:4.6.2
 _ZN13KGameLCDClock4stopEv@Base 4:4.6.2
 _ZN13KGameLCDClock5resetEv@Base 4:4.6.2
 _ZN13KGameLCDClock5startEv@Base 4:4.6.2
 _ZN13KGameLCDClock7setTimeERK7QString@Base 4:4.6.2
 _ZN13KGameLCDClock7setTimeEj@Base 4:4.6.2
 _ZN13KGameLCDClock8showTimeEv@Base 4:4.6.2
 _ZN13KGameLCDClockC1EP7QWidget@Base 4:4.6.2
 _ZN13KGameLCDClockC2EP7QWidget@Base 4:4.6.2
 _ZN13KGameLCDClockD0Ev@Base 4:4.6.2
 _ZN13KGameLCDClockD1Ev@Base 4:4.6.2
 _ZN13KGameLCDClockD2Ev@Base 4:4.6.2
 _ZN13KGameProgress10paintEventEP11QPaintEvent@Base 4:4.6.2
 _ZN13KGameProgress10setMaximumEi@Base 4:4.6.2
 _ZN13KGameProgress10setMinimumEi@Base 4:4.6.2
 _ZN13KGameProgress11qt_metacallEN11QMetaObject4CallEiPPv@Base 4:4.6.2
 _ZN13KGameProgress11qt_metacastEPKc@Base 4:4.6.2
 _ZN13KGameProgress11setBarColorERK6QColor@Base 4:4.6.2
 _ZN13KGameProgress11setBarStyleENS_8BarStyleE@Base 4:4.6.2
 _ZN13KGameProgress11styleChangeER6QStyle@Base 4:4.6.2
 _ZN13KGameProgress11valueChangeEi@Base 4:4.6.2
 _ZN13KGameProgress12setBarPixmapERK7QPixmap@Base 4:4.6.2
 _ZN13KGameProgress13paletteChangeERK8QPalette@Base 4:4.6.2
 _ZN13KGameProgress13paletteChangeEv@Base 4:4.6.2
 _ZN13KGameProgress14setOrientationEN2Qt11OrientationE@Base 4:4.6.2
 _ZN13KGameProgress14setTextEnabledEb@Base 4:4.6.2
 _ZN13KGameProgress16staticMetaObjectE@Base 4:4.6.2
 _ZN13KGameProgress17percentageChangedEi@Base 4:4.6.2
 _ZN13KGameProgress20KGameProgressPrivate10initializeEv@Base 4:4.6.2
 _ZN13KGameProgress20KGameProgressPrivate11adjustStyleEv@Base 4:4.6.2
 _ZN13KGameProgress20KGameProgressPrivate11recalcValueEi@Base 4:4.6.2
 _ZN13KGameProgress20KGameProgressPrivate8drawTextEP8QPainter@Base 4:4.6.2
 _ZN13KGameProgress7advanceEi@Base 4:4.6.2
 _ZN13KGameProgress8setValueEi@Base 4:4.6.2
 _ZN13KGameProgress9setFormatERK7QString@Base 4:4.6.2
 _ZN13KGameProgressC1EN2Qt11OrientationEP7QWidget@Base 4:4.6.2
 _ZN13KGameProgressC1EP7QWidget@Base 4:4.6.2
 _ZN13KGameProgressC2EN2Qt11OrientationEP7QWidget@Base 4:4.6.2
 _ZN13KGameProgressC2EP7QWidget@Base 4:4.6.2
 _ZN13KGameProgressD0Ev@Base 4:4.6.2
 _ZN13KGameProgressD1Ev@Base 4:4.6.2
 _ZN13KGameProgressD2Ev@Base 4:4.6.2
 _ZN13KGameRenderer11qt_metacallEN11QMetaObject4CallEiPPv@Base 4:4.6.2
 _ZN13KGameRenderer11qt_metacastEPKc@Base 4:4.6.2
 _ZN13KGameRenderer12themeChangedERK7QString@Base 4:4.6.2
 _ZN13KGameRenderer14setFrameSuffixERK7QString@Base 4:4.6.2
 _ZN13KGameRenderer16staticMetaObjectE@Base 4:4.6.2
 _ZN13KGameRenderer17setFrameBaseIndexEi@Base 4:4.6.2
 _ZN13KGameRenderer18setStrategyEnabledENS_8StrategyEb@Base 4:4.6.2
 _ZN13KGameRenderer21setDefaultPrimaryViewEP13QGraphicsView@Base 4:4.6.2
 _ZN13KGameRenderer8setThemeERK7QString@Base 4:4.6.2
 _ZN13KGameRendererC1ERK7QStringj@Base 4:4.6.2
 _ZN13KGameRendererC2ERK7QStringj@Base 4:4.6.2
 _ZN13KGameRendererD0Ev@Base 4:4.6.2
 _ZN13KGameRendererD1Ev@Base 4:4.6.2
 _ZN13KGameRendererD2Ev@Base 4:4.6.2
 _ZN13KGameSequence10nextPlayerEP7KPlayerb@Base 4:4.6.2
 _ZN13KGameSequence11qt_metacallEN11QMetaObject4CallEiPPv@Base 4:4.6.2
 _ZN13KGameSequence11qt_metacastEPKc@Base 4:4.6.2
 _ZN13KGameSequence13checkGameOverEP7KPlayer@Base 4:4.6.2
 _ZN13KGameSequence16setCurrentPlayerEP7KPlayer@Base 4:4.6.2
 _ZN13KGameSequence16staticMetaObjectE@Base 4:4.6.2
 _ZN13KGameSequence7setGameEP5KGame@Base 4:4.6.2
 _ZN13KGameSequenceC1Ev@Base 4:4.6.2
 _ZN13KGameSequenceC2Ev@Base 4:4.6.2
 _ZN13KGameSequenceD0Ev@Base 4:4.6.2
 _ZN13KGameSequenceD1Ev@Base 4:4.6.2
 _ZN13KGameSequenceD2Ev@Base 4:4.6.2
 _ZN14KChatBaseModel10addMessageERK7QStringS2_@Base 4:4.6.2
 _ZN14KChatBaseModel10readConfigEP7KConfig@Base 4:4.6.2
 _ZN14KChatBaseModel10saveConfigEP7KConfig@Base 4:4.6.2
 _ZN14KChatBaseModel11qt_metacallEN11QMetaObject4CallEiPPv@Base 4:4.6.2
 _ZN14KChatBaseModel11qt_metacastEPKc@Base 4:4.6.2
 _ZN14KChatBaseModel11setBothFontERK5QFont@Base 4:4.6.2
 _ZN14KChatBaseModel11setMaxItemsEi@Base 4:4.6.2
 _ZN14KChatBaseModel11setNameFontERK5QFont@Base 4:4.6.2
 _ZN14KChatBaseModel14setMessageFontERK5QFont@Base 4:4.6.2
 _ZN14KChatBaseModel16addSystemMessageERK7QStringS2_@Base 4:4.6.2
 _ZN14KChatBaseModel16staticMetaObjectE@Base 4:4.6.2
 _ZN14KChatBaseModel17setSystemBothFontERK5QFont@Base 4:4.6.2
 _ZN14KChatBaseModel17setSystemNameFontERK5QFont@Base 4:4.6.2
 _ZN14KChatBaseModel20setSystemMessageFontERK5QFont@Base 4:4.6.2
 _ZN14KChatBaseModel5clearEv@Base 4:4.6.2
 _ZN14KChatBaseModel9slotClearEv@Base 4:4.6.2
 _ZN14KChatBaseModelC1EP7QObject@Base 4:4.6.2
 _ZN14KChatBaseModelC2EP7QObject@Base 4:4.6.2
 _ZN14KChatBaseModelD0Ev@Base 4:4.6.2
 _ZN14KChatBaseModelD1Ev@Base 4:4.6.2
 _ZN14KChatBaseModelD2Ev@Base 4:4.6.2
 _ZN14KGamePopupItem11linkHoveredERK7QString@Base 4:4.6.2
 _ZN14KGamePopupItem11qt_metacallEN11QMetaObject4CallEiPPv@Base 4:4.6.2
 _ZN14KGamePopupItem11qt_metacastEPKc@Base 4:4.6.2
 _ZN14KGamePopupItem11showMessageERK7QStringNS_8PositionENS_11ReplaceModeE@Base 4:4.6.2
 _ZN14KGamePopupItem12setSharpnessENS_9SharpnessE@Base 4:4.6.2
 _ZN14KGamePopupItem12setTextColorERK6QColor@Base 4:4.6.2
 _ZN14KGamePopupItem13linkActivatedERK7QString@Base 4:4.6.2
 _ZN14KGamePopupItem13onLinkHoveredERK7QString@Base 4:4.6.2
 _ZN14KGamePopupItem13setupTimelineEv@Base 4:4.6.2
 _ZN14KGamePopupItem14animationFrameEi@Base 4:4.6.2
 _ZN14KGamePopupItem14setMessageIconERK7QPixmap@Base 4:4.6.2
 _ZN14KGamePopupItem15hoverEnterEventEP24QGraphicsSceneHoverEvent@Base 4:4.6.2
 _ZN14KGamePopupItem15hoverLeaveEventEP24QGraphicsSceneHoverEvent@Base 4:4.6.2
 _ZN14KGamePopupItem15mousePressEventEP24QGraphicsSceneMouseEvent@Base 4:4.6.2
 _ZN14KGamePopupItem16staticMetaObjectE@Base 4:4.6.2
 _ZN14KGamePopupItem17mouseReleaseEventEP24QGraphicsSceneMouseEvent@Base 4:4.6.2
 _ZN14KGamePopupItem17onTextItemClickedEv@Base 4:4.6.2
 _ZN14KGamePopupItem17playHideAnimationEv@Base 4:4.6.2
 _ZN14KGamePopupItem17setMessageOpacityEd@Base 4:4.6.2
 _ZN14KGamePopupItem17setMessageTimeoutEi@Base 4:4.6.2
 _ZN14KGamePopupItem18setBackgroundBrushERK6QBrush@Base 4:4.6.2
 _ZN14KGamePopupItem19setHideOnMouseClickEb@Base 4:4.6.2
 _ZN14KGamePopupItem5paintEP8QPainterPK24QStyleOptionGraphicsItemP7QWidget@Base 4:4.6.2
 _ZN14KGamePopupItem6hiddenEv@Base 4:4.6.2
 _ZN14KGamePopupItem6hideMeEv@Base 4:4.6.2
 _ZN14KGamePopupItem9forceHideENS_8HideTypeE@Base 4:4.6.2
 _ZN14KGamePopupItemC1EP13QGraphicsItem@Base 4:4.6.2
 _ZN14KGamePopupItemC2EP13QGraphicsItem@Base 4:4.6.2
 _ZN14KGamePopupItemD0Ev@Base 4:4.6.2
 _ZN14KGamePopupItemD1Ev@Base 4:4.6.2
 _ZN14KGamePopupItemD2Ev@Base 4:4.6.2
 _ZN14KGameProcessIO10notifyTurnEb@Base 4:4.6.2
 _ZN14KGameProcessIO11qt_metacallEN11QMetaObject4CallEiPPv@Base 4:4.6.2
 _ZN14KGameProcessIO11qt_metacastEPKc@Base 4:4.6.2
 _ZN14KGameProcessIO11sendMessageER11QDataStreamijj@Base 4:4.6.2
 _ZN14KGameProcessIO13signalIOAddedEP7KGameIOR11QDataStreamP7KPlayerPb@Base 4:4.6.2
 _ZN14KGameProcessIO15receivedMessageERK10QByteArray@Base 4:4.6.2
 _ZN14KGameProcessIO15sendAllMessagesER11QDataStreamijjb@Base 4:4.6.2
 _ZN14KGameProcessIO16staticMetaObjectE@Base 4:4.6.2
 _ZN14KGameProcessIO17sendSystemMessageER11QDataStreamijj@Base 4:4.6.2
 _ZN14KGameProcessIO18signalProcessQueryER11QDataStreamPS_@Base 4:4.6.2
 _ZN14KGameProcessIO20signalReceivedStderrE7QString@Base 4:4.6.2
 _ZN14KGameProcessIO6initIOEP7KPlayer@Base 4:4.6.2
 _ZN14KGameProcessIOC1ERK7QString@Base 4:4.6.2
 _ZN14KGameProcessIOC2ERK7QString@Base 4:4.6.2
 _ZN14KGameProcessIOD0Ev@Base 4:4.6.2
 _ZN14KGameProcessIOD1Ev@Base 4:4.6.2
 _ZN14KGameProcessIOD2Ev@Base 4:4.6.2
 _ZN14KGameSvgDigits10digitStyleEv@Base 4:4.6.2
 _ZN14KGameSvgDigits10paddingTopEv@Base 4:4.6.2
 _ZN14KGameSvgDigits10setBitmaskEm@Base 4:4.6.2
 _ZN14KGameSvgDigits10setPaddingEiiii@Base 4:4.6.2
 _ZN14KGameSvgDigits11cacheOptionEv@Base 4:4.6.2
 _ZN14KGameSvgDigits11paddingLeftEv@Base 4:4.6.2
 _ZN14KGameSvgDigits11qt_metacallEN11QMetaObject4CallEiPPv@Base 4:4.6.2
 _ZN14KGameSvgDigits11qt_metacastEPKc@Base 4:4.6.2
 _ZN14KGameSvgDigits11updateFlashEv@Base 4:4.6.2
 _ZN14KGameSvgDigits12paddingRightEv@Base 4:4.6.2
 _ZN14KGameSvgDigits12refreshCacheEv@Base 4:4.6.2
 _ZN14KGameSvgDigits12setDigitTypeE6QFlagsINS_9DigitTypeEE@Base 4:4.6.2
 _ZN14KGameSvgDigits12setDigitTypeERK7QString@Base 4:4.6.2
 _ZN14KGameSvgDigits12setElementIdERK7QString@Base 4:4.6.2
 _ZN14KGameSvgDigits12stopFlashingEv@Base 4:4.6.2
 _ZN14KGameSvgDigits13letterSpacingEv@Base 4:4.6.2
 _ZN14KGameSvgDigits13paddingBottomEv@Base 4:4.6.2
 _ZN14KGameSvgDigits13setDigitStyleERK7QString@Base 4:4.6.2
 _ZN14KGameSvgDigits13setDigitStyleERKNS_10DigitStyleE@Base 4:4.6.2
 _ZN14KGameSvgDigits13setPaddingTopEi@Base 4:4.6.2
 _ZN14KGameSvgDigits14numberOfDigitsEv@Base 4:4.6.2
 _ZN14KGameSvgDigits14setCacheOptionE6QFlagsINS_11CacheOptionEE@Base 4:4.6.2
 _ZN14KGameSvgDigits14setCacheOptionERK7QString@Base 4:4.6.2
 _ZN14KGameSvgDigits14setPaddingLeftEi@Base 4:4.6.2
 _ZN14KGameSvgDigits15backgroundColorEv@Base 4:4.6.2
 _ZN14KGameSvgDigits15foregroundColorEv@Base 4:4.6.2
 _ZN14KGameSvgDigits15setPaddingRightEi@Base 4:4.6.2
 _ZN14KGameSvgDigits16setLetterSpacingEi@Base 4:4.6.2
 _ZN14KGameSvgDigits16setPaddingBottomEi@Base 4:4.6.2
 _ZN14KGameSvgDigits16staticMetaObjectE@Base 4:4.6.2
 _ZN14KGameSvgDigits17setNumberOfDigitsEi@Base 4:4.6.2
 _ZN14KGameSvgDigits18isPixmapCacheDirtyEv@Base 4:4.6.2
 _ZN14KGameSvgDigits18setBackgroundColorERK6QColor@Base 4:4.6.2
 _ZN14KGameSvgDigits18setForegroundColorERK6QColor@Base 4:4.6.2
 _ZN14KGameSvgDigits18signalDisplayDirtyEv@Base 4:4.6.2
 _ZN14KGameSvgDigits19setPixmapCacheDirtyEb@Base 4:4.6.2
 _ZN14KGameSvgDigits23ledOffSegmentAlphaLevelEv@Base 4:4.6.2
 _ZN14KGameSvgDigits24backgroundHighlightColorEv@Base 4:4.6.2
 _ZN14KGameSvgDigits24foregroundHighlightColorEv@Base 4:4.6.2
 _ZN14KGameSvgDigits26setLedOffSegmentAlphaLevelEi@Base 4:4.6.2
 _ZN14KGameSvgDigits27setBackgroundHighlightColorERK6QColor@Base 4:4.6.2
 _ZN14KGameSvgDigits27setForegroundHighlightColorERK6QColor@Base 4:4.6.2
 _ZN14KGameSvgDigits5flashEi@Base 4:4.6.2
 _ZN14KGameSvgDigits5flashEv@Base 4:4.6.2
 _ZN14KGameSvgDigits5skewXEv@Base 4:4.6.2
 _ZN14KGameSvgDigits5skewYEv@Base 4:4.6.2
 _ZN14KGameSvgDigits6scaleXEv@Base 4:4.6.2
 _ZN14KGameSvgDigits6scaleYEv@Base 4:4.6.2
 _ZN14KGameSvgDigits7bitmaskEv@Base 4:4.6.2
 _ZN14KGameSvgDigits7displayERK7QString@Base 4:4.6.2
 _ZN14KGameSvgDigits8setSkewXEd@Base 4:4.6.2
 _ZN14KGameSvgDigits8setSkewYEd@Base 4:4.6.2
 _ZN14KGameSvgDigits9digitTypeEv@Base 4:4.6.2
 _ZN14KGameSvgDigits9elementIdEv@Base 4:4.6.2
 _ZN14KGameSvgDigits9highlightEv@Base 4:4.6.2
 _ZN14KGameSvgDigits9loadThemeERK7QString@Base 4:4.6.2
 _ZN14KGameSvgDigits9setScaleXEd@Base 4:4.6.2
 _ZN14KGameSvgDigits9setScaleYEd@Base 4:4.6.2
 _ZN14KGameSvgDigitsC1ERK7QString@Base 4:4.6.2
 _ZN14KGameSvgDigitsC1Ev@Base 4:4.6.2
 _ZN14KGameSvgDigitsC2ERK7QString@Base 4:4.6.2
 _ZN14KGameSvgDigitsC2Ev@Base 4:4.6.2
 _ZN14KGameSvgDigitsD0Ev@Base 4:4.6.2
 _ZN14KGameSvgDigitsD1Ev@Base 4:4.6.2
 _ZN14KGameSvgDigitsD2Ev@Base 4:4.6.2
 _ZN14KMessageClient10disconnectEv@Base 4:4.6.2
 _ZN14KMessageClient11qt_metacallEN11QMetaObject4CallEiPPv@Base 4:4.6.2
 _ZN14KMessageClient11qt_metacastEPKc@Base 4:4.6.2
 _ZN14KMessageClient11sendForwardERK10QByteArrayRK5QListIjE@Base 4:4.6.2
 _ZN14KMessageClient11sendForwardERK10QByteArrayj@Base 4:4.6.2
 _ZN14KMessageClient13sendBroadcastERK10QByteArray@Base 4:4.6.2
 _ZN14KMessageClient14processMessageERK10QByteArray@Base 4:4.6.2
 _ZN14KMessageClient15forwardReceivedERK10QByteArrayjRK5QListIjE@Base 4:4.6.2
 _ZN14KMessageClient16connectionBrokenEv@Base 4:4.6.2
 _ZN14KMessageClient16staticMetaObjectE@Base 4:4.6.2
 _ZN14KMessageClient17aboutToDisconnectEj@Base 4:4.6.2
 _ZN14KMessageClient17broadcastReceivedERK10QByteArrayj@Base 4:4.6.2
 _ZN14KMessageClient17sendServerMessageERK10QByteArray@Base 4:4.6.2
 _ZN14KMessageClient18adminStatusChangedEb@Base 4:4.6.2
 _ZN14KMessageClient19processFirstMessageEv@Base 4:4.6.2
 _ZN14KMessageClient20eventClientConnectedEj@Base 4:4.6.2
 _ZN14KMessageClient21serverMessageReceivedERK10QByteArrayRb@Base 4:4.6.2
 _ZN14KMessageClient22processIncomingMessageERK10QByteArray@Base 4:4.6.2
 _ZN14KMessageClient22removeBrokenConnectionEv@Base 4:4.6.2
 _ZN14KMessageClient23eventClientDisconnectedEjb@Base 4:4.6.2
 _ZN14KMessageClient23removeBrokenConnection2Ev@Base 4:4.6.2
 _ZN14KMessageClient4lockEv@Base 4:4.6.2
 _ZN14KMessageClient6unlockEv@Base 4:4.6.2
 _ZN14KMessageClient9setServerEP10KMessageIO@Base 4:4.6.2
 _ZN14KMessageClient9setServerEP14KMessageServer@Base 4:4.6.2
 _ZN14KMessageClient9setServerERK7QStringt@Base 4:4.6.2
 _ZN14KMessageClientC1EP7QObject@Base 4:4.6.2
 _ZN14KMessageClientC2EP7QObject@Base 4:4.6.2
 _ZN14KMessageClientD0Ev@Base 4:4.6.2
 _ZN14KMessageClientD1Ev@Base 4:4.6.2
 _ZN14KMessageClientD2Ev@Base 4:4.6.2
 _ZN14KMessageServer11initNetworkEt@Base 4:4.6.2
 _ZN14KMessageServer11qt_metacallEN11QMetaObject4CallEiPPv@Base 4:4.6.2
 _ZN14KMessageServer11qt_metacastEPKc@Base 4:4.6.2
 _ZN14KMessageServer11sendMessageERK5QListIjERK10QByteArray@Base 4:4.6.2
 _ZN14KMessageServer11sendMessageEjRK10QByteArray@Base 4:4.6.2
 _ZN14KMessageServer11stopNetworkEv@Base 4:4.6.2
 _ZN14KMessageServer12removeClientEP10KMessageIOb@Base 4:4.6.2
 _ZN14KMessageServer13deleteClientsEv@Base 4:4.6.2
 _ZN14KMessageServer13setMaxClientsEi@Base 4:4.6.2
 _ZN14KMessageServer14connectionLostEP10KMessageIO@Base 4:4.6.2
 _ZN14KMessageServer15clientConnectedEP10KMessageIO@Base 4:4.6.2
 _ZN14KMessageServer15messageReceivedERK10QByteArrayjRb@Base 4:4.6.2
 _ZN14KMessageServer16broadcastMessageERK10QByteArray@Base 4:4.6.2
 _ZN14KMessageServer16staticMetaObjectE@Base 4:4.6.2
 _ZN14KMessageServer17processOneMessageEv@Base 4:4.6.2
 _ZN14KMessageServer18getReceivedMessageERK10QByteArray@Base 4:4.6.2
 _ZN14KMessageServer18removeBrokenClientEv@Base 4:4.6.2
 _ZN14KMessageServer5DebugEv@Base 4:4.6.2
 _ZN14KMessageServer8setAdminEj@Base 4:4.6.2
 _ZN14KMessageServer9addClientEP10KMessageIO@Base 4:4.6.2
 _ZN14KMessageServerC1EtP7QObject@Base 4:4.6.2
 _ZN14KMessageServerC2EtP7QObject@Base 4:4.6.2
 _ZN14KMessageServerD0Ev@Base 4:4.6.2
 _ZN14KMessageServerD1Ev@Base 4:4.6.2
 _ZN14KMessageServerD2Ev@Base 4:4.6.2
 _ZN15KGameCanvasItem10setOpacityEi@Base 4:4.6.2
 _ZN15KGameCanvasItem10setVisibleEb@Base 4:4.6.2
 _ZN15KGameCanvasItem10stackUnderEPS_@Base 4:4.6.2
 _ZN15KGameCanvasItem11putInCanvasEP19KGameCanvasAbstract@Base 4:4.6.2
 _ZN15KGameCanvasItem11setAnimatedEb@Base 4:4.6.2
 _ZN15KGameCanvasItem13paintInternalEP8QPainterRK5QRectRK7QRegionRK6QPointd@Base 4:4.6.2
 _ZN15KGameCanvasItem13updateChangesEv@Base 4:4.6.2
 _ZN15KGameCanvasItem18updateAfterRestackEii@Base 4:4.6.2
 _ZN15KGameCanvasItem20getTransparenceCacheERK5QSize@Base 4:4.6.2
 _ZN15KGameCanvasItem25transparence_pixmap_cacheE@Base 4:4.6.2
 _ZN15KGameCanvasItem5lowerEv@Base 4:4.6.2
 _ZN15KGameCanvasItem5raiseEv@Base 4:4.6.2
 _ZN15KGameCanvasItem6moveToERK6QPoint@Base 4:4.6.2
 _ZN15KGameCanvasItem7advanceEi@Base 4:4.6.2
 _ZN15KGameCanvasItem7changedEv@Base 4:4.6.2
 _ZN15KGameCanvasItem9stackOverEPS_@Base 4:4.6.2
 _ZN15KGameCanvasItemC1EP19KGameCanvasAbstract@Base 4:4.6.2
 _ZN15KGameCanvasItemC2EP19KGameCanvasAbstract@Base 4:4.6.2
 _ZN15KGameCanvasItemD0Ev@Base 4:4.6.2
 _ZN15KGameCanvasItemD1Ev@Base 4:4.6.2
 _ZN15KGameCanvasItemD2Ev@Base 4:4.6.2
 _ZN15KGameCanvasText14setPositioningENS_4HPosENS_4VPosE@Base 4:4.6.2
 _ZN15KGameCanvasText16calcBoundingRectEv@Base 4:4.6.2
 _ZN15KGameCanvasText5paintEP8QPainter@Base 4:4.6.2
 _ZN15KGameCanvasText7setFontERK5QFont@Base 4:4.6.2
 _ZN15KGameCanvasText7setTextERK7QString@Base 4:4.6.2
 _ZN15KGameCanvasText8setColorERK6QColor@Base 4:4.6.2
 _ZN15KGameCanvasTextC1EP19KGameCanvasAbstract@Base 4:4.6.2
 _ZN15KGameCanvasTextC1ERK7QStringRK6QColorRK5QFontNS_4HPosENS_4VPosEP19KGameCanvasAbstract@Base 4:4.6.2
 _ZN15KGameCanvasTextC2EP19KGameCanvasAbstract@Base 4:4.6.2
 _ZN15KGameCanvasTextC2ERK7QStringRK6QColorRK5QFontNS_4HPosENS_4VPosEP19KGameCanvasAbstract@Base 4:4.6.2
 _ZN15KGameCanvasTextD0Ev@Base 4:4.6.2
 _ZN15KGameCanvasTextD1Ev@Base 4:4.6.2
 _ZN15KGameCanvasTextD2Ev@Base 4:4.6.2
 _ZN15KGameComputerIO11qt_metacallEN11QMetaObject4CallEiPPv@Base 4:4.6.2
 _ZN15KGameComputerIO11qt_metacastEPKc@Base 4:4.6.2
 _ZN15KGameComputerIO14signalReactionEv@Base 4:4.6.2
 _ZN15KGameComputerIO16setAdvancePeriodEi@Base 4:4.6.2
 _ZN15KGameComputerIO16staticMetaObjectE@Base 4:4.6.2
 _ZN15KGameComputerIO17setReactionPeriodEi@Base 4:4.6.2
 _ZN15KGameComputerIO17stopAdvancePeriodEv@Base 4:4.6.2
 _ZN15KGameComputerIO5pauseEi@Base 4:4.6.2
 _ZN15KGameComputerIO7advanceEv@Base 4:4.6.2
 _ZN15KGameComputerIO7unpauseEv@Base 4:4.6.2
 _ZN15KGameComputerIO8reactionEv@Base 4:4.6.2
 _ZN15KGameComputerIOC1EP7KPlayer@Base 4:4.6.2
 _ZN15KGameComputerIOC1Ev@Base 4:4.6.2
 _ZN15KGameComputerIOC2EP7KPlayer@Base 4:4.6.2
 _ZN15KGameComputerIOC2Ev@Base 4:4.6.2
 _ZN15KGameComputerIOD0Ev@Base 4:4.6.2
 _ZN15KGameComputerIOD1Ev@Base 4:4.6.2
 _ZN15KGameComputerIOD2Ev@Base 4:4.6.2
 _ZN15KGameDifficulty10setEnabledEb@Base 4:4.6.2
 _ZN15KGameDifficulty10setRunningEb@Base 4:4.6.2
 _ZN15KGameDifficulty11levelCustomEv@Base 4:4.6.2
 _ZN15KGameDifficulty11levelStringEv@Base 4:4.6.2
 _ZN15KGameDifficulty12levelWeightsEv@Base 4:4.6.2
 _ZN15KGameDifficulty14addCustomLevelEiRK7QString@Base 4:4.6.2
 _ZN15KGameDifficulty14setLevelCustomEi@Base 4:4.6.2
 _ZN15KGameDifficulty16addStandardLevelENS_13standardLevelE@Base 4:4.6.2
 _ZN15KGameDifficulty17removeCustomLevelEi@Base 4:4.6.2
 _ZN15KGameDifficulty18setRestartOnChangeENS_8onChangeE@Base 4:4.6.2
 _ZN15KGameDifficulty19removeStandardLevelENS_13standardLevelE@Base 4:4.6.2
 _ZN15KGameDifficulty20localizedLevelStringEv@Base 4:4.6.2
 _ZN15KGameDifficulty21localizedLevelStringsEv@Base 4:4.6.2
 _ZN15KGameDifficulty4initEP13KXmlGuiWindowPK7QObjectPKcS6_@Base 4:4.6.2
 _ZN15KGameDifficulty4selfEv@Base 4:4.6.2
 _ZN15KGameDifficulty5levelEv@Base 4:4.6.2
 _ZN15KGameDifficulty8instanceE@Base 4:4.6.2
 _ZN15KGameDifficulty8setLevelENS_13standardLevelE@Base 4:4.6.2
 _ZN15KGameDifficultyC1Ev@Base 4:4.6.2
 _ZN15KGameDifficultyC2Ev@Base 4:4.6.2
 _ZN15KGameDifficultyD0Ev@Base 4:4.6.2
 _ZN15KGameDifficultyD1Ev@Base 4:4.6.2
 _ZN15KGameDifficultyD2Ev@Base 4:4.6.2
 _ZN16KChatBaseMessageC1ERK7QStringS2_NS_11MessageTypeE@Base 4:4.6.2
 _ZN16KChatBaseMessageC1ERKS_@Base 4:4.6.2
 _ZN16KChatBaseMessageC1Ev@Base 4:4.6.2
 _ZN16KChatBaseMessageC2ERK7QStringS2_NS_11MessageTypeE@Base 4:4.6.2
 _ZN16KChatBaseMessageC2ERKS_@Base 4:4.6.2
 _ZN16KChatBaseMessageC2Ev@Base 4:4.6.2
 _ZN16KChatBaseMessageD0Ev@Base 4:4.6.2
 _ZN16KChatBaseMessageD1Ev@Base 4:4.6.2
 _ZN16KChatBaseMessageD2Ev@Base 4:4.6.2
 _ZN16KGameCanvasDummy5paintEP8QPainter@Base 4:4.6.2
 _ZN16KGameCanvasDummyC1EP19KGameCanvasAbstract@Base 4:4.6.2
 _ZN16KGameCanvasDummyC2EP19KGameCanvasAbstract@Base 4:4.6.2
 _ZN16KGameCanvasDummyD0Ev@Base 4:4.6.2
 _ZN16KGameCanvasDummyD1Ev@Base 4:4.6.2
 _ZN16KGameCanvasDummyD2Ev@Base 4:4.6.2
 _ZN16KGameCanvasGroup10invalidateERK5QRectb@Base 4:4.6.2
 _ZN16KGameCanvasGroup10invalidateERK7QRegionb@Base 4:4.6.2
 _ZN16KGameCanvasGroup13paintInternalEP8QPainterRK5QRectRK7QRegionRK6QPointd@Base 4:4.6.2
 _ZN16KGameCanvasGroup13updateChangesEv@Base 4:4.6.2
 _ZN16KGameCanvasGroup14topLevelCanvasEv@Base 4:4.6.2
 _ZN16KGameCanvasGroup15ensureAnimatingEv@Base 4:4.6.2
 _ZN16KGameCanvasGroup19ensurePendingUpdateEv@Base 4:4.6.2
 _ZN16KGameCanvasGroup5paintEP8QPainter@Base 4:4.6.2
 _ZN16KGameCanvasGroup7advanceEi@Base 4:4.6.2
 _ZN16KGameCanvasGroup7changedEv@Base 4:4.6.2
 _ZN16KGameCanvasGroupC1EP19KGameCanvasAbstract@Base 4:4.6.2
 _ZN16KGameCanvasGroupC2EP19KGameCanvasAbstract@Base 4:4.6.2
 _ZN16KGameCanvasGroupD0Ev@Base 4:4.6.2
 _ZN16KGameCanvasGroupD1Ev@Base 4:4.6.2
 _ZN16KGameCanvasGroupD2Ev@Base 4:4.6.2
 _ZN16KGameDebugDialog10clearPagesEv@Base 4:4.6.2
 _ZN16KGameDebugDialog10slotHideIdEv@Base 4:4.6.2
 _ZN16KGameDebugDialog10slotShowIdEv@Base 4:4.6.2
 _ZN16KGameDebugDialog11qt_metacallEN11QMetaObject4CallEiPPv@Base 4:4.6.2
 _ZN16KGameDebugDialog11qt_metacastEPKc@Base 4:4.6.2
 _ZN16KGameDebugDialog12initGamePageEv@Base 4:4.6.2
 _ZN16KGameDebugDialog12removePlayerEP15QListWidgetItem@Base 4:4.6.2
 _ZN16KGameDebugDialog13clearGameDataEv@Base 4:4.6.2
 _ZN16KGameDebugDialog14initPlayerPageEv@Base 4:4.6.2
 _ZN16KGameDebugDialog14slotUnsetKGameEv@Base 4:4.6.2
 _ZN16KGameDebugDialog15clearPlayerDataEv@Base 4:4.6.2
 _ZN16KGameDebugDialog15initMessagePageEv@Base 4:4.6.2
 _ZN16KGameDebugDialog16staticMetaObjectE@Base 4:4.6.2
 _ZN16KGameDebugDialog17slotClearMessagesEv@Base 4:4.6.2
 _ZN16KGameDebugDialog17slotMessageUpdateEijj@Base 4:4.6.2
 _ZN16KGameDebugDialog18slotUpdateGameDataEv@Base 4:4.6.2
 _ZN16KGameDebugDialog19signalRequestIdNameEibR7QString@Base 4:4.6.2
 _ZN16KGameDebugDialog20slotUpdatePlayerDataEP15QListWidgetItem@Base 4:4.6.2
 _ZN16KGameDebugDialog20slotUpdatePlayerDataEv@Base 4:4.6.2
 _ZN16KGameDebugDialog20slotUpdatePlayerListEv@Base 4:4.6.2
 _ZN16KGameDebugDialog6showIdEi@Base 4:4.6.2
 _ZN16KGameDebugDialog8setKGameEPK5KGame@Base 4:4.6.2
 _ZN16KGameDebugDialog9addPlayerEP7KPlayer@Base 4:4.6.2
 _ZN16KGameDebugDialogC1EP5KGameP7QWidgetb@Base 4:4.6.2
 _ZN16KGameDebugDialogC2EP5KGameP7QWidgetb@Base 4:4.6.2
 _ZN16KGameDebugDialogD0Ev@Base 4:4.6.2
 _ZN16KGameDebugDialogD1Ev@Base 4:4.6.2
 _ZN16KGameDebugDialogD2Ev@Base 4:4.6.2
 _ZN16KGameSvgDocument11elementByIdERK7QString@Base 4:4.6.2
 _ZN16KGameSvgDocument12setTransformERK7QString@Base 4:4.6.2
 _ZN16KGameSvgDocument14setCurrentNodeERK8QDomNode@Base 4:4.6.2
 _ZN16KGameSvgDocument14setSvgFilenameERK7QString@Base 4:4.6.2
 _ZN16KGameSvgDocument16setStylePropertyERK7QStringS2_@Base 4:4.6.2
 _ZN16KGameSvgDocument18setStylePropertiesERK5QHashI7QStringS1_ERK6QFlagsINS_23StylePropertySortOptionEE@Base 4:4.6.2
 _ZN16KGameSvgDocument18setTransformMatrixER7QMatrixRK6QFlagsINS_12MatrixOptionEE@Base 4:4.6.2
 _ZN16KGameSvgDocument29elementByUniqueAttributeValueERK7QStringS2_@Base 4:4.6.2
 _ZN16KGameSvgDocument4loadERK7QString@Base 4:4.6.2
 _ZN16KGameSvgDocument4loadEv@Base 4:4.6.2
 _ZN16KGameSvgDocument4skewEddRK6QFlagsINS_12MatrixOptionEE@Base 4:4.6.2
 _ZN16KGameSvgDocument5scaleEddRK6QFlagsINS_12MatrixOptionEE@Base 4:4.6.2
 _ZN16KGameSvgDocument5shearEddRK6QFlagsINS_12MatrixOptionEE@Base 4:4.6.2
 _ZN16KGameSvgDocument6rotateEdRK6QFlagsINS_12MatrixOptionEE@Base 4:4.6.2
 _ZN16KGameSvgDocument8setStyleERK7QString@Base 4:4.6.2
 _ZN16KGameSvgDocument9translateEiiRK6QFlagsINS_12MatrixOptionEE@Base 4:4.6.2
 _ZN16KGameSvgDocumentC1ERKS_@Base 4:4.6.2
 _ZN16KGameSvgDocumentC1Ev@Base 4:4.6.2
 _ZN16KGameSvgDocumentC2ERKS_@Base 4:4.6.2
 _ZN16KGameSvgDocumentC2Ev@Base 4:4.6.2
 _ZN16KGameSvgDocumentD0Ev@Base 4:4.6.2
 _ZN16KGameSvgDocumentD1Ev@Base 4:4.6.2
 _ZN16KGameSvgDocumentD2Ev@Base 4:4.6.2
 _ZN16KGameSvgDocumentaSERKS_@Base 4:4.6.2
 _ZN17KGameCanvasPixmap5paintEP8QPainter@Base 4:4.6.2
 _ZN17KGameCanvasPixmap9setPixmapERK7QPixmap@Base 4:4.6.2
 _ZN17KGameCanvasPixmapC1EP19KGameCanvasAbstract@Base 4:4.6.2
 _ZN17KGameCanvasPixmapC1ERK7QPixmapP19KGameCanvasAbstract@Base 4:4.6.2
 _ZN17KGameCanvasPixmapC2EP19KGameCanvasAbstract@Base 4:4.6.2
 _ZN17KGameCanvasPixmapC2ERK7QPixmapP19KGameCanvasAbstract@Base 4:4.6.2
 _ZN17KGameCanvasPixmapD0Ev@Base 4:4.6.2
 _ZN17KGameCanvasPixmapD1Ev@Base 4:4.6.2
 _ZN17KGameCanvasPixmapD2Ev@Base 4:4.6.2
 _ZN17KGameCanvasWidget10invalidateERK5QRectb@Base 4:4.6.2
 _ZN17KGameCanvasWidget10invalidateERK7QRegionb@Base 4:4.6.2
 _ZN17KGameCanvasWidget10paintEventEP11QPaintEvent@Base 4:4.6.2
 _ZN17KGameCanvasWidget11qt_metacallEN11QMetaObject4CallEiPPv@Base 4:4.6.2
 _ZN17KGameCanvasWidget11qt_metacastEPKc@Base 4:4.6.2
 _ZN17KGameCanvasWidget13updateChangesEv@Base 4:4.6.2
 _ZN17KGameCanvasWidget14topLevelCanvasEv@Base 4:4.6.2
 _ZN17KGameCanvasWidget15ensureAnimatingEv@Base 4:4.6.2
 _ZN17KGameCanvasWidget16staticMetaObjectE@Base 4:4.6.2
 _ZN17KGameCanvasWidget17processAnimationsEv@Base 4:4.6.2
 _ZN17KGameCanvasWidget17setAnimationDelayEi@Base 4:4.6.2
 _ZN17KGameCanvasWidget19ensurePendingUpdateEv@Base 4:4.6.2
 _ZN17KGameCanvasWidget5mSecsEv@Base 4:4.6.2
 _ZN17KGameCanvasWidgetC1EP7QWidget@Base 4:4.6.2
 _ZN17KGameCanvasWidgetC2EP7QWidget@Base 4:4.6.2
 _ZN17KGameCanvasWidgetD0Ev@Base 4:4.6.2
 _ZN17KGameCanvasWidgetD1Ev@Base 4:4.6.2
 _ZN17KGameCanvasWidgetD2Ev@Base 4:4.6.2
 _ZN17KGameDialogConfig11qt_metacallEN11QMetaObject4CallEiPPv@Base 4:4.6.2
 _ZN17KGameDialogConfig11qt_metacastEPKc@Base 4:4.6.2
 _ZN17KGameDialogConfig16staticMetaObjectE@Base 4:4.6.2
 _ZN17KGameDialogConfig8setAdminEb@Base 4:4.6.2
 _ZN17KGameDialogConfig8setKGameEP5KGame@Base 4:4.6.2
 _ZN17KGameDialogConfig8setOwnerEP7KPlayer@Base 4:4.6.2
 _ZN17KGameDialogConfigC1EP7QWidget@Base 4:4.6.2
 _ZN17KGameDialogConfigC2EP7QWidget@Base 4:4.6.2
 _ZN17KGameDialogConfigD0Ev@Base 4:4.6.2
 _ZN17KGameDialogConfigD1Ev@Base 4:4.6.2
 _ZN17KGameDialogConfigD2Ev@Base 4:4.6.2
 _ZN17KGamePropertyBase10emitSignalEv@Base 4:4.6.2
 _ZN17KGamePropertyBase12registerDataEP20KGamePropertyHandlerNS_14PropertyPolicyERK7QString@Base 4:4.6.2
 _ZN17KGamePropertyBase12registerDataEiP20KGamePropertyHandlerNS_14PropertyPolicyERK7QString@Base 4:4.6.2
 _ZN17KGamePropertyBase12registerDataEiP20KGamePropertyHandlerRK7QString@Base 4:4.6.2
 _ZN17KGamePropertyBase12registerDataEiP5KGameRK7QString@Base 4:4.6.2
 _ZN17KGamePropertyBase12registerDataEiP7KPlayerRK7QString@Base 4:4.6.2
 _ZN17KGamePropertyBase12sendPropertyERK10QByteArray@Base 4:4.6.2
 _ZN17KGamePropertyBase12sendPropertyEv@Base 4:4.6.2
 _ZN17KGamePropertyBase14unregisterDataEv@Base 4:4.6.2
 _ZN17KGamePropertyBase4initEv@Base 4:4.6.2
 _ZN17KGamePropertyBase4lockEv@Base 4:4.6.2
 _ZN17KGamePropertyBase6unlockEb@Base 4:4.6.2
 _ZN17KGamePropertyBase7commandER11QDataStreamib@Base 4:4.6.2
 _ZN17KGamePropertyBase7setLockEb@Base 4:4.6.2
 _ZN17KGamePropertyBaseC1EiP20KGamePropertyHandler@Base 4:4.6.2
 _ZN17KGamePropertyBaseC1EiP5KGame@Base 4:4.6.2
 _ZN17KGamePropertyBaseC1EiP7KPlayer@Base 4:4.6.2
 _ZN17KGamePropertyBaseC1Ev@Base 4:4.6.2
 _ZN17KGamePropertyBaseC2EiP20KGamePropertyHandler@Base 4:4.6.2
 _ZN17KGamePropertyBaseC2EiP5KGame@Base 4:4.6.2
 _ZN17KGamePropertyBaseC2EiP7KPlayer@Base 4:4.6.2
 _ZN17KGamePropertyBaseC2Ev@Base 4:4.6.2
 _ZN17KGamePropertyBaseD0Ev@Base 4:4.6.2
 _ZN17KGamePropertyBaseD1Ev@Base 4:4.6.2
 _ZN17KGamePropertyBaseD2Ev@Base 4:4.6.2
 _ZN17KGameRenderedItem13receivePixmapERK7QPixmap@Base 4:4.6.2
 _ZN17KGameRenderedItemC1EP13KGameRendererRK7QStringP13QGraphicsItem@Base 4:4.6.2
 _ZN17KGameRenderedItemC2EP13KGameRendererRK7QStringP13QGraphicsItem@Base 4:4.6.2
 _ZN17KGameRenderedItemD0Ev@Base 4:4.6.2
 _ZN17KGameRenderedItemD1Ev@Base 4:4.6.2
 _ZN17KGameRenderedItemD2Ev@Base 4:4.6.2
 _ZN18KGameCanvasAdapter10invalidateERK5QRectb@Base 4:4.6.2
 _ZN18KGameCanvasAdapter10invalidateERK7QRegionb@Base 4:4.6.2
 _ZN18KGameCanvasAdapter19ensurePendingUpdateEv@Base 4:4.6.2
 _ZN18KGameCanvasAdapter6renderEP8QPainter@Base 4:4.6.2
 _ZN18KGameCanvasAdapter9childRectEv@Base 4:4.6.2
 _ZN18KGameCanvasAdapterC1Ev@Base 4:4.6.2
 _ZN18KGameCanvasAdapterC2Ev@Base 4:4.6.2
 _ZN18KGameCanvasPicture10setPictureERK8QPicture@Base 4:4.6.2
 _ZN18KGameCanvasPicture5paintEP8QPainter@Base 4:4.6.2
 _ZN18KGameCanvasPictureC1EP19KGameCanvasAbstract@Base 4:4.6.2
 _ZN18KGameCanvasPictureC1ERK8QPictureP19KGameCanvasAbstract@Base 4:4.6.2
 _ZN18KGameCanvasPictureC2EP19KGameCanvasAbstract@Base 4:4.6.2
 _ZN18KGameCanvasPictureC2ERK8QPictureP19KGameCanvasAbstract@Base 4:4.6.2
 _ZN18KGameCanvasPictureD0Ev@Base 4:4.6.2
 _ZN18KGameCanvasPictureD1Ev@Base 4:4.6.2
 _ZN18KGameCanvasPictureD2Ev@Base 4:4.6.2
 _ZN18KGameThemeSelector11qt_metacallEN11QMetaObject4CallEiPPv@Base 4:4.6.2
 _ZN18KGameThemeSelector11qt_metacastEPKc@Base 4:4.6.2
 _ZN18KGameThemeSelector16staticMetaObjectE@Base 4:4.6.2
 _ZN18KGameThemeSelector25KGameThemeSelectorPrivate10findThemesERK7QString@Base 4:4.6.2
 _ZN18KGameThemeSelector25KGameThemeSelectorPrivate16_k_updatePreviewEv@Base 4:4.6.2
 _ZN18KGameThemeSelector25KGameThemeSelectorPrivate18_k_updateThemeListERK7QString@Base 4:4.6.2
 _ZN18KGameThemeSelector25KGameThemeSelectorPrivate22_k_openKNewStuffDialogEv@Base 4:4.6.2
 _ZN18KGameThemeSelector25KGameThemeSelectorPrivate9setupDataEP15KConfigSkeletonNS_13NewStuffStateE@Base 4:4.6.2
 _ZN18KGameThemeSelectorC1EP7QWidgetP15KConfigSkeletonNS_13NewStuffStateERK7QStringS7_@Base 4:4.6.2
 _ZN18KGameThemeSelectorC2EP7QWidgetP15KConfigSkeletonNS_13NewStuffStateERK7QStringS7_@Base 4:4.6.2
 _ZN18KGameThemeSelectorD0Ev@Base 4:4.6.2
 _ZN18KGameThemeSelectorD1Ev@Base 4:4.6.2
 _ZN18KGameThemeSelectorD2Ev@Base 4:4.6.2
 _ZN19KGameCanvasAbstractC1Ev@Base 4:4.6.2
 _ZN19KGameCanvasAbstractC2Ev@Base 4:4.6.2
 _ZN19KGameCanvasAbstractD0Ev@Base 4:4.6.2
 _ZN19KGameCanvasAbstractD1Ev@Base 4:4.6.2
 _ZN19KGameCanvasAbstractD2Ev@Base 4:4.6.2
 _ZN19KGameRendererClient12setSpriteKeyERK7QString@Base 4:4.6.2
 _ZN19KGameRendererClient13setRenderSizeERK5QSize@Base 4:4.6.2
 _ZN19KGameRendererClient15setCustomColorsERK5QHashI6QColorS1_E@Base 4:4.6.2
 _ZN19KGameRendererClient8setFrameEi@Base 4:4.6.2
 _ZN19KGameRendererClientC1EP13KGameRendererRK7QString@Base 4:4.6.2
 _ZN19KGameRendererClientC2EP13KGameRendererRK7QString@Base 4:4.6.2
 _ZN19KGameRendererClientD0Ev@Base 4:4.6.2
 _ZN19KGameRendererClientD1Ev@Base 4:4.6.2
 _ZN19KGameRendererClientD2Ev@Base 4:4.6.2
 _ZN19KStandardGameAction10highscoresEPK7QObjectPKcPS0_@Base 4:4.6.2
 _ZN19KStandardGameAction10loadRecentEPK7QObjectPKcPS0_@Base 4:4.6.2
 _ZN19KStandardGameAction10statisticsEPK7QObjectPKcPS0_@Base 4:4.6.2
 _ZN19KStandardGameAction14chooseGameTypeEPK7QObjectPKcPS0_@Base 4:4.6.2
 _ZN19KStandardGameAction15clearStatisticsEPK7QObjectPKcPS0_@Base 4:4.6.2
 _ZN19KStandardGameAction19configureHighscoresEPK7QObjectPKcPS0_@Base 4:4.6.2
 _ZN19KStandardGameAction3endEPK7QObjectPKcPS0_@Base 4:4.6.2
 _ZN19KStandardGameAction4demoEPK7QObjectPKcPS0_@Base 4:4.6.2
 _ZN19KStandardGameAction4hintEPK7QObjectPKcPS0_@Base 4:4.6.2
 _ZN19KStandardGameAction4loadEPK7QObjectPKcPS0_@Base 4:4.6.2
 _ZN19KStandardGameAction4nameENS_18StandardGameActionE@Base 4:4.6.2
 _ZN19KStandardGameAction4quitEPK7QObjectPKcPS0_@Base 4:4.6.2
 _ZN19KStandardGameAction4redoEPK7QObjectPKcPS0_@Base 4:4.6.2
 _ZN19KStandardGameAction4rollEPK7QObjectPKcPS0_@Base 4:4.6.2
 _ZN19KStandardGameAction4saveEPK7QObjectPKcPS0_@Base 4:4.6.2
 _ZN19KStandardGameAction4undoEPK7QObjectPKcPS0_@Base 4:4.6.2
 _ZN19KStandardGameAction5pauseEPK7QObjectPKcPS0_@Base 4:4.6.2
 _ZN19KStandardGameAction5printEPK7QObjectPKcPS0_@Base 4:4.6.2
 _ZN19KStandardGameAction5solveEPK7QObjectPKcPS0_@Base 4:4.6.2
 _ZN19KStandardGameAction6createENS_18StandardGameActionEPK7QObjectPKcPS1_@Base 4:4.6.2
 _ZN19KStandardGameAction6repeatEPK7QObjectPKcPS0_@Base 4:4.6.2
 _ZN19KStandardGameAction6saveAsEPK7QObjectPKcPS0_@Base 4:4.6.2
 _ZN19KStandardGameAction7endTurnEPK7QObjectPKcPS0_@Base 4:4.6.2
 _ZN19KStandardGameAction7gameNewEPK7QObjectPKcPS0_@Base 4:4.6.2
 _ZN19KStandardGameAction7restartEPK7QObjectPKcPS0_@Base 4:4.6.2
 _ZN19KStandardGameAction9carddecksEPK7QObjectPKcPS0_@Base 4:4.6.2
 _ZN20KGameCanvasRectangle5paintEP8QPainter@Base 4:4.6.2
 _ZN20KGameCanvasRectangle7setSizeERK5QSize@Base 4:4.6.2
 _ZN20KGameCanvasRectangle8setColorERK6QColor@Base 4:4.6.2
 _ZN20KGameCanvasRectangleC1EP19KGameCanvasAbstract@Base 4:4.6.2
 _ZN20KGameCanvasRectangleC1ERK6QColorRK5QSizeP19KGameCanvasAbstract@Base 4:4.6.2
 _ZN20KGameCanvasRectangleC2EP19KGameCanvasAbstract@Base 4:4.6.2
 _ZN20KGameCanvasRectangleC2ERK6QColorRK5QSizeP19KGameCanvasAbstract@Base 4:4.6.2
 _ZN20KGameCanvasRectangleD0Ev@Base 4:4.6.2
 _ZN20KGameCanvasRectangleD1Ev@Base 4:4.6.2
 _ZN20KGameCanvasRectangleD2Ev@Base 4:4.6.2
 _ZN20KGamePropertyHandler10emitSignalEP17KGamePropertyBase@Base 4:4.6.2
 _ZN20KGamePropertyHandler11addPropertyEP17KGamePropertyBaseRK7QString@Base 4:4.6.2
 _ZN20KGamePropertyHandler11qt_metacallEN11QMetaObject4CallEiPPv@Base 4:4.6.2
 _ZN20KGamePropertyHandler11qt_metacastEPKc@Base 4:4.6.2
 _ZN20KGamePropertyHandler12sendPropertyER11QDataStream@Base 4:4.6.2
 _ZN20KGamePropertyHandler13propertyValueEP17KGamePropertyBase@Base 4:4.6.2
 _ZN20KGamePropertyHandler14lockDirectEmitEv@Base 4:4.6.2
 _ZN20KGamePropertyHandler14lockPropertiesEv@Base 4:4.6.2
 _ZN20KGamePropertyHandler14processMessageER11QDataStreamib@Base 4:4.6.2
 _ZN20KGamePropertyHandler14removePropertyEP17KGamePropertyBase@Base 4:4.6.2
 _ZN20KGamePropertyHandler15registerHandlerEiPK7QObjectPKcS4_@Base 4:4.6.2
 _ZN20KGamePropertyHandler16staticMetaObjectE@Base 4:4.6.2
 _ZN20KGamePropertyHandler16uniquePropertyIdEv@Base 4:4.6.2
 _ZN20KGamePropertyHandler16unlockDirectEmitEv@Base 4:4.6.2
 _ZN20KGamePropertyHandler16unlockPropertiesEv@Base 4:4.6.2
 _ZN20KGamePropertyHandler17signalSendMessageEiR11QDataStreamPb@Base 4:4.6.2
 _ZN20KGamePropertyHandler18signalRequestValueEP17KGamePropertyBaseR7QString@Base 4:4.6.2
 _ZN20KGamePropertyHandler21signalPropertyChangedEP17KGamePropertyBase@Base 4:4.6.2
 _ZN20KGamePropertyHandler4findEi@Base 4:4.6.2
 _ZN20KGamePropertyHandler4loadER11QDataStream@Base 4:4.6.2
 _ZN20KGamePropertyHandler4saveER11QDataStream@Base 4:4.6.2
 _ZN20KGamePropertyHandler5DebugEv@Base 4:4.6.2
 _ZN20KGamePropertyHandler5clearEv@Base 4:4.6.2
 _ZN20KGamePropertyHandler5flushEv@Base 4:4.6.2
 _ZN20KGamePropertyHandler5setIdEi@Base 4:4.6.2
 _ZN20KGamePropertyHandler6policyEv@Base 4:4.6.2
 _ZN20KGamePropertyHandler9setPolicyEN17KGamePropertyBase14PropertyPolicyEb@Base 4:4.6.2
 _ZN20KGamePropertyHandlerC1EP7QObject@Base 4:4.6.2
 _ZN20KGamePropertyHandlerC1EiPK7QObjectPKcS4_PS0_@Base 4:4.6.2
 _ZN20KGamePropertyHandlerC2EP7QObject@Base 4:4.6.2
 _ZN20KGamePropertyHandlerC2EiPK7QObjectPKcS4_PS0_@Base 4:4.6.2
 _ZN20KGamePropertyHandlerD0Ev@Base 4:4.6.2
 _ZN20KGamePropertyHandlerD1Ev@Base 4:4.6.2
 _ZN20KGamePropertyHandlerD2Ev@Base 4:4.6.2
 _ZN21KChatBaseItemDelegate11qt_metacallEN11QMetaObject4CallEiPPv@Base 4:4.6.2
 _ZN21KChatBaseItemDelegate11qt_metacastEPKc@Base 4:4.6.2
 _ZN21KChatBaseItemDelegate16staticMetaObjectE@Base 4:4.6.2
 _ZN21KChatBaseItemDelegateC1EP7QObject@Base 4:4.6.2
 _ZN21KChatBaseItemDelegateC2EP7QObject@Base 4:4.6.2
 _ZN21KChatBaseItemDelegateD0Ev@Base 4:4.6.2
 _ZN21KChatBaseItemDelegateD1Ev@Base 4:4.6.2
 _ZN21KChatBaseItemDelegateD2Ev@Base 4:4.6.2
 _ZN22KGameCanvasTiledPixmap13setMoveOriginEb@Base 4:4.6.2
 _ZN22KGameCanvasTiledPixmap5paintEP8QPainter@Base 4:4.6.2
 _ZN22KGameCanvasTiledPixmap7setSizeERK5QSize@Base 4:4.6.2
 _ZN22KGameCanvasTiledPixmap9setOriginERK6QPoint@Base 4:4.6.2
 _ZN22KGameCanvasTiledPixmap9setPixmapERK7QPixmap@Base 4:4.6.2
 _ZN22KGameCanvasTiledPixmapC1EP19KGameCanvasAbstract@Base 4:4.6.2
 _ZN22KGameCanvasTiledPixmapC1ERK7QPixmapRK5QSizeRK6QPointbP19KGameCanvasAbstract@Base 4:4.6.2
 _ZN22KGameCanvasTiledPixmapC2EP19KGameCanvasAbstract@Base 4:4.6.2
 _ZN22KGameCanvasTiledPixmapC2ERK7QPixmapRK5QSizeRK6QPointbP19KGameCanvasAbstract@Base 4:4.6.2
 _ZN22KGameCanvasTiledPixmapD0Ev@Base 4:4.6.2
 _ZN22KGameCanvasTiledPixmapD1Ev@Base 4:4.6.2
 _ZN22KGameCanvasTiledPixmapD2Ev@Base 4:4.6.2
 _ZN23KGameRenderedObjectItem11qt_metacallEN11QMetaObject4CallEiPPv@Base 4:4.6.2
 _ZN23KGameRenderedObjectItem11qt_metacastEPKc@Base 4:4.6.2
 _ZN23KGameRenderedObjectItem12setFixedSizeERK6QSizeF@Base 4:4.6.2
 _ZN23KGameRenderedObjectItem13receivePixmapERK7QPixmap@Base 4:4.6.2
 _ZN23KGameRenderedObjectItem14setPrimaryViewEP13QGraphicsView@Base 4:4.6.2
 _ZN23KGameRenderedObjectItem16staticMetaObjectE@Base 4:4.6.2
 _ZN23KGameRenderedObjectItem5paintEP8QPainterPK24QStyleOptionGraphicsItemP7QWidget@Base 4:4.6.2
 _ZN23KGameRenderedObjectItem9setOffsetERK7QPointF@Base 4:4.6.2
 _ZN23KGameRenderedObjectItem9setOffsetEdd@Base 4:4.6.2
 _ZN23KGameRenderedObjectItemC1EP13KGameRendererRK7QStringP13QGraphicsItem@Base 4:4.6.2
 _ZN23KGameRenderedObjectItemC2EP13KGameRendererRK7QStringP13QGraphicsItem@Base 4:4.6.2
 _ZN23KGameRenderedObjectItemD0Ev@Base 4:4.6.2
 _ZN23KGameRenderedObjectItemD1Ev@Base 4:4.6.2
 _ZN23KGameRenderedObjectItemD2Ev@Base 4:4.6.2
 _ZN24KGameDialogNetworkConfig11qt_metacallEN11QMetaObject4CallEiPPv@Base 4:4.6.2
 _ZN24KGameDialogNetworkConfig11qt_metacastEPKc@Base 4:4.6.2
 _ZN24KGameDialogNetworkConfig12setConnectedEbb@Base 4:4.6.2
 _ZN24KGameDialogNetworkConfig13submitToKGameEP5KGameP7KPlayer@Base 4:4.6.2
 _ZN24KGameDialogNetworkConfig16setDiscoveryInfoERK7QStringS2_@Base 4:4.6.2
 _ZN24KGameDialogNetworkConfig16staticMetaObjectE@Base 4:4.6.2
 _ZN24KGameDialogNetworkConfig18slotExitConnectionEv@Base 4:4.6.2
 _ZN24KGameDialogNetworkConfig18slotInitConnectionEv@Base 4:4.6.2
 _ZN24KGameDialogNetworkConfig20slotConnectionBrokenEv@Base 4:4.6.2
 _ZN24KGameDialogNetworkConfig21setDefaultNetworkInfoERK7QStringtb@Base 4:4.6.2
 _ZN24KGameDialogNetworkConfig23signalServerTypeChangedEi@Base 4:4.6.2
 _ZN24KGameDialogNetworkConfig8setKGameEP5KGame@Base 4:4.6.2
 _ZN24KGameDialogNetworkConfigC1EP7QWidget@Base 4:4.6.2
 _ZN24KGameDialogNetworkConfigC2EP7QWidget@Base 4:4.6.2
 _ZN24KGameDialogNetworkConfigD0Ev@Base 4:4.6.2
 _ZN24KGameDialogNetworkConfigD1Ev@Base 4:4.6.2
 _ZN24KGameDialogNetworkConfigD2Ev@Base 4:4.6.2
 _ZN25KGameCanvasRenderedPixmap13receivePixmapERK7QPixmap@Base 4:4.6.2
 _ZN25KGameCanvasRenderedPixmapC1EP13KGameRendererRK7QStringP19KGameCanvasAbstract@Base 4:4.6.2
 _ZN25KGameCanvasRenderedPixmapC2EP13KGameRendererRK7QStringP19KGameCanvasAbstract@Base 4:4.6.2
 _ZN5KChat11qt_metacallEN11QMetaObject4CallEiPPv@Base 4:4.6.2
 _ZN5KChat11qt_metacastEPKc@Base 4:4.6.2
 _ZN5KChat12removePlayerERK7QString@Base 4:4.6.2
 _ZN5KChat12removePlayerEi@Base 4:4.6.2
 _ZN5KChat13returnPressedERK7QString@Base 4:4.6.2
 _ZN5KChat15setFromNicknameERK7QString@Base 4:4.6.2
 _ZN5KChat16staticMetaObjectE@Base 4:4.6.2
 _ZN5KChat17signalSendMessageEiRK7QString@Base 4:4.6.2
 _ZN5KChat18setAutoAddMessagesEb@Base 4:4.6.2
 _ZN5KChat4initEv@Base 4:4.6.2
 _ZN5KChat8uniqueIdEv@Base 4:4.6.2
 _ZN5KChat9addPlayerERK7QString@Base 4:4.6.2
 _ZN5KChatC1EP7QWidgetP14KChatBaseModelP21KChatBaseItemDelegateb@Base 4:4.6.2
 _ZN5KChatC1EP7QWidgetb@Base 4:4.6.2
 _ZN5KChatC2EP7QWidgetP14KChatBaseModelP21KChatBaseItemDelegateb@Base 4:4.6.2
 _ZN5KChatC2EP7QWidgetb@Base 4:4.6.2
 _ZN5KChatD0Ev@Base 4:4.6.2
 _ZN5KChatD1Ev@Base 4:4.6.2
 _ZN5KChatD2Ev@Base 4:4.6.2
 _ZN5KGame10emitSignalEP17KGamePropertyBase@Base 4:4.6.2
 _ZN5KGame10loadPlayerER11QDataStreamb@Base 4:4.6.2
 _ZN5KGame10nextPlayerEP7KPlayerb@Base 4:4.6.2
 _ZN5KGame10playerListEv@Base 4:4.6.2
 _ZN5KGame10savePlayerER11QDataStreamP7KPlayer@Base 4:4.6.2
 _ZN5KGame10signalLoadER11QDataStream@Base 4:4.6.2
 _ZN5KGame10signalSaveER11QDataStream@Base 4:4.6.2
 _ZN5KGame10syncRandomEv@Base 4:4.6.2
 _ZN5KGame11addPropertyEP17KGamePropertyBase@Base 4:4.6.2
 _ZN5KGame11prepareNextEv@Base 4:4.6.2
 _ZN5KGame11qt_metacallEN11QMetaObject4CallEiPPv@Base 4:4.6.2
 _ZN5KGame11qt_metacastEPKc@Base 4:4.6.2
 _ZN5KGame11savePlayersER11QDataStreamP5QListIP7KPlayerE@Base 4:4.6.2
 _ZN5KGame12createPlayerEiib@Base 4:4.6.2
 _ZN5KGame12removePlayerEP7KPlayerj@Base 4:4.6.2
 _ZN5KGame12sendPropertyEiR11QDataStreamPb@Base 4:4.6.2
 _ZN5KGame12systemRemoveEP7KPlayerb@Base 4:4.6.2
 _ZN5KGame13checkGameOverEP7KPlayer@Base 4:4.6.2
 _ZN5KGame13deletePlayersEv@Base 4:4.6.2
 _ZN5KGame13playerDeletedEP7KPlayer@Base 4:4.6.2
 _ZN5KGame13setGameStatusEi@Base 4:4.6.2
 _ZN5KGame13setMaxPlayersEj@Base 4:4.6.2
 _ZN5KGame13setMinPlayersEj@Base 4:4.6.2
 _ZN5KGame14activatePlayerEP7KPlayer@Base 4:4.6.2
 _ZN5KGame14signalGameOverEiP7KPlayerPS_@Base 4:4.6.2
 _ZN5KGame15sendPlayerInputER11QDataStreamP7KPlayerj@Base 4:4.6.2
 _ZN5KGame15setGameSequenceEP13KGameSequence@Base 4:4.6.2
 _ZN5KGame15signalLoadErrorER11QDataStreambiRb@Base 4:4.6.2
 _ZN5KGame15systemAddPlayerEP7KPlayer@Base 4:4.6.2
 _ZN5KGame16inactivatePlayerEP7KPlayer@Base 4:4.6.2
 _ZN5KGame16sendGroupMessageERK10QByteArrayijRK7QString@Base 4:4.6.2
 _ZN5KGame16sendGroupMessageERK11QDataStreamijRK7QString@Base 4:4.6.2
 _ZN5KGame16sendGroupMessageERK7QStringijS2_@Base 4:4.6.2
 _ZN5KGame16staticMetaObjectE@Base 4:4.6.2
 _ZN5KGame17setupGameContinueER11QDataStreamj@Base 4:4.6.2
 _ZN5KGame17signalNetworkDataEiRK10QByteArrayjj@Base 4:4.6.2
 _ZN5KGame17systemPlayerInputER11QDataStreamP7KPlayerj@Base 4:4.6.2
 _ZN5KGame18inactivePlayerListEv@Base 4:4.6.2
 _ZN5KGame18sendPlayerPropertyEiR11QDataStreamj@Base 4:4.6.2
 _ZN5KGame18systemRemovePlayerEP7KPlayerb@Base 4:4.6.2
 _ZN5KGame19networkTransmissionER11QDataStreamijjj@Base 4:4.6.2
 _ZN5KGame19playerInputFinishedEP7KPlayer@Base 4:4.6.2
 _ZN5KGame19signalMessageUpdateEijj@Base 4:4.6.2
 _ZN5KGame19slotClientConnectedEj@Base 4:4.6.2
 _ZN5KGame20negotiateNetworkGameEj@Base 4:4.6.2
 _ZN5KGame20signalClientLeftGameEiiPS_@Base 4:4.6.2
 _ZN5KGame20signalLoadPrePlayersER11QDataStream@Base 4:4.6.2
 _ZN5KGame20signalPlayerLeftGameEP7KPlayer@Base 4:4.6.2
 _ZN5KGame20signalSavePrePlayersER11QDataStream@Base 4:4.6.2
 _ZN5KGame20systemActivatePlayerEP7KPlayer@Base 4:4.6.2
 _ZN5KGame21deleteInactivePlayersEv@Base 4:4.6.2
 _ZN5KGame21signalPropertyChangedEP17KGamePropertyBasePS_@Base 4:4.6.2
 _ZN5KGame21signalReplacePlayerIOEP7KPlayerPb@Base 4:4.6.2
 _ZN5KGame22signalClientJoinedGameEjPS_@Base 4:4.6.2
 _ZN5KGame22signalPlayerJoinedGameEP7KPlayer@Base 4:4.6.2
 _ZN5KGame22slotClientDisconnectedEjb@Base 4:4.6.2
 _ZN5KGame22slotServerDisconnectedEv@Base 4:4.6.2
 _ZN5KGame22systemInactivatePlayerEP7KPlayer@Base 4:4.6.2
 _ZN5KGame4loadER11QDataStreamb@Base 4:4.6.2
 _ZN5KGame4loadERK7QStringb@Base 4:4.6.2
 _ZN5KGame4saveER11QDataStreamb@Base 4:4.6.2
 _ZN5KGame4saveERK7QStringb@Base 4:4.6.2
 _ZN5KGame5DebugEv@Base 4:4.6.2
 _ZN5KGame5resetEv@Base 4:4.6.2
 _ZN5KGame8loadgameER11QDataStreambb@Base 4:4.6.2
 _ZN5KGame8savegameER11QDataStreambb@Base 4:4.6.2
 _ZN5KGame9addPlayerEP7KPlayer@Base 4:4.6.2
 _ZN5KGame9setPolicyENS_10GamePolicyEb@Base 4:4.6.2
 _ZN5KGame9setupGameEj@Base 4:4.6.2
 _ZN5KGameC1EiP7QObject@Base 4:4.6.2
 _ZN5KGameC2EiP7QObject@Base 4:4.6.2
 _ZN5KGameD0Ev@Base 4:4.6.2
 _ZN5KGameD1Ev@Base 4:4.6.2
 _ZN5KGameD2Ev@Base 4:4.6.2
 _ZN7KGameIO10notifyTurnEb@Base 4:4.6.2
 _ZN7KGameIO11qt_metacallEN11QMetaObject4CallEiPPv@Base 4:4.6.2
 _ZN7KGameIO11qt_metacastEPKc@Base 4:4.6.2
 _ZN7KGameIO16staticMetaObjectE@Base 4:4.6.2
 _ZN7KGameIO17signalPrepareTurnER11QDataStreambPS_Pb@Base 4:4.6.2
 _ZN7KGameIO5DebugEv@Base 4:4.6.2
 _ZN7KGameIO6initIOEP7KPlayer@Base 4:4.6.2
 _ZN7KGameIO9sendInputER11QDataStreambj@Base 4:4.6.2
 _ZN7KGameIO9setPlayerEP7KPlayer@Base 4:4.6.2
 _ZN7KGameIOC1EP7KPlayer@Base 4:4.6.2
 _ZN7KGameIOC1Ev@Base 4:4.6.2
 _ZN7KGameIOC2EP7KPlayer@Base 4:4.6.2
 _ZN7KGameIOC2Ev@Base 4:4.6.2
 _ZN7KGameIOD0Ev@Base 4:4.6.2
 _ZN7KGameIOD1Ev@Base 4:4.6.2
 _ZN7KGameIOD2Ev@Base 4:4.6.2
 _ZN7KPlayer10emitSignalEP17KGamePropertyBase@Base 4:4.6.2
 _ZN7KPlayer10setVirtualEb@Base 4:4.6.2
 _ZN7KPlayer11addPropertyEP17KGamePropertyBase@Base 4:4.6.2
 _ZN7KPlayer11calcIOValueEv@Base 4:4.6.2
 _ZN7KPlayer11dataHandlerEv@Base 4:4.6.2
 _ZN7KPlayer11qt_metacallEN11QMetaObject4CallEiPPv@Base 4:4.6.2
 _ZN7KPlayer11qt_metacastEPKc@Base 4:4.6.2
 _ZN7KPlayer12forwardInputER11QDataStreambj@Base 4:4.6.2
 _ZN7KPlayer12removeGameIOEP7KGameIOb@Base 4:4.6.2
 _ZN7KPlayer12sendPropertyEiR11QDataStreamPb@Base 4:4.6.2
 _ZN7KPlayer13setAsyncInputEb@Base 4:4.6.2
 _ZN7KPlayer14forwardMessageER11QDataStreamijj@Base 4:4.6.2
 _ZN7KPlayer16setNetworkPlayerEPS_@Base 4:4.6.2
 _ZN7KPlayer16staticMetaObjectE@Base 4:4.6.2
 _ZN7KPlayer17signalNetworkDataEiRK10QByteArrayjPS_@Base 4:4.6.2
 _ZN7KPlayer18setNetworkPriorityEi@Base 4:4.6.2
 _ZN7KPlayer19networkTransmissionER11QDataStreamij@Base 4:4.6.2
 _ZN7KPlayer21signalPropertyChangedEP17KGamePropertyBasePS_@Base 4:4.6.2
 _ZN7KPlayer4initEv@Base 4:4.6.2
 _ZN7KPlayer4loadER11QDataStream@Base 4:4.6.2
 _ZN7KPlayer4saveER11QDataStream@Base 4:4.6.2
 _ZN7KPlayer5DebugEv@Base 4:4.6.2
 _ZN7KPlayer5setIdEj@Base 4:4.6.2
 _ZN7KPlayer6ioListEv@Base 4:4.6.2
 _ZN7KPlayer7setGameEP5KGame@Base 4:4.6.2
 _ZN7KPlayer7setNameERK7QString@Base 4:4.6.2
 _ZN7KPlayer7setTurnEbb@Base 4:4.6.2
 _ZN7KPlayer8setGroupERK7QString@Base 4:4.6.2
 _ZN7KPlayer9addGameIOEP7KGameIO@Base 4:4.6.2
 _ZN7KPlayer9setActiveEb@Base 4:4.6.2
 _ZN7KPlayer9setUserIdEi@Base 4:4.6.2
 _ZN7KPlayerC1Ev@Base 4:4.6.2
 _ZN7KPlayerC2Ev@Base 4:4.6.2
 _ZN7KPlayerD0Ev@Base 4:4.6.2
 _ZN7KPlayerD1Ev@Base 4:4.6.2
 _ZN7KPlayerD2Ev@Base 4:4.6.2
 _ZN8KGameLCD10displayIntEi@Base 4:4.6.2
 _ZN8KGameLCD10resetColorEv@Base 4:4.6.2
 _ZN8KGameLCD11qt_metacallEN11QMetaObject4CallEiPPv@Base 4:4.6.2
 _ZN8KGameLCD11qt_metacastEPKc@Base 4:4.6.2
 _ZN8KGameLCD15setDefaultColorERK6QColor@Base 4:4.6.2
 _ZN8KGameLCD16setHighlightTimeEj@Base 4:4.6.2
 _ZN8KGameLCD16setLeadingStringERK7QString@Base 4:4.6.2
 _ZN8KGameLCD16staticMetaObjectE@Base 4:4.6.2
 _ZN8KGameLCD17setHighlightColorERK6QColor@Base 4:4.6.2
 _ZN8KGameLCD25setDefaultBackgroundColorERK6QColor@Base 4:4.6.2
 _ZN8KGameLCD8setColorERK6QColor@Base 4:4.6.2
 _ZN8KGameLCD9highlightEb@Base 4:4.6.2
 _ZN8KGameLCD9highlightEv@Base 4:4.6.2
 _ZN8KGameLCDC1EjP7QWidget@Base 4:4.6.2
 _ZN8KGameLCDC2EjP7QWidget@Base 4:4.6.2
 _ZN8KGameLCDD0Ev@Base 4:4.6.2
 _ZN8KGameLCDD1Ev@Base 4:4.6.2
 _ZN8KGameLCDD2Ev@Base 4:4.6.2
 _ZN9KCardInfo7setCardENS_4CardE@Base 4:4.6.2
 _ZN9KCardInfo7setSuitENS_4SuitE@Base 4:4.6.2
 _ZN9KCardInfoC1ENS_4SuitENS_4CardE@Base 4:4.6.2
 _ZN9KCardInfoC2ENS_4SuitENS_4CardE@Base 4:4.6.2
 _ZN9KChatBase10addMessageERK7QStringS2_@Base 4:4.6.2
 _ZN9KChatBase10readConfigEP7KConfig@Base 4:4.6.2
 _ZN9KChatBase10saveConfigEP7KConfig@Base 4:4.6.2
 _ZN9KChatBase11qt_metacallEN11QMetaObject4CallEiPPv@Base 4:4.6.2
 _ZN9KChatBase11qt_metacastEPKc@Base 4:4.6.2
 _ZN9KChatBase11setBothFontERK5QFont@Base 4:4.6.2
 _ZN9KChatBase11setMaxItemsEi@Base 4:4.6.2
 _ZN9KChatBase11setNameFontERK5QFont@Base 4:4.6.2
 _ZN9KChatBase14setMessageFontERK5QFont@Base 4:4.6.2
 _ZN9KChatBase15addSendingEntryERK7QStringi@Base 4:4.6.2
 _ZN9KChatBase15setSendingEntryEi@Base 4:4.6.2
 _ZN9KChatBase16addSystemMessageERK7QStringS2_@Base 4:4.6.2
 _ZN9KChatBase16setAcceptMessageEb@Base 4:4.6.2
 _ZN9KChatBase16staticMetaObjectE@Base 4:4.6.2
 _ZN9KChatBase17customMenuHandlerERK6QPoint@Base 4:4.6.2
 _ZN9KChatBase17setCompletionModeEN15KGlobalSettings10CompletionE@Base 4:4.6.2
 _ZN9KChatBase17setSystemBothFontERK5QFont@Base 4:4.6.2
 _ZN9KChatBase17setSystemNameFontERK5QFont@Base 4:4.6.2
 _ZN9KChatBase17slotReturnPressedERK7QString@Base 4:4.6.2
 _ZN9KChatBase18changeSendingEntryERK7QStringi@Base 4:4.6.2
 _ZN9KChatBase18insertSendingEntryERK7QStringii@Base 4:4.6.2
 _ZN9KChatBase18removeSendingEntryEi@Base 4:4.6.2
 _ZN9KChatBase20setSystemMessageFontERK5QFont@Base 4:4.6.2
 _ZN9KChatBase5clearEv@Base 4:4.6.2
 _ZN9KChatBase5modelEv@Base 4:4.6.2
 _ZN9KChatBase8setModelEP14KChatBaseModel@Base 4:4.6.2
 _ZN9KChatBase9slotClearEv@Base 4:4.6.2
 _ZN9KChatBaseC1EP7QWidgetP14KChatBaseModelP21KChatBaseItemDelegateb@Base 4:4.6.2
 _ZN9KChatBaseC2EP7QWidgetP14KChatBaseModelP21KChatBaseItemDelegateb@Base 4:4.6.2
 _ZN9KChatBaseD0Ev@Base 4:4.6.2
 _ZN9KChatBaseD1Ev@Base 4:4.6.2
 _ZN9KChatBaseD2Ev@Base 4:4.6.2
 _ZN9KGameChat10addMessageEiRK7QString@Base 4:4.6.2
 _ZN9KGameChat11qt_metacallEN11QMetaObject4CallEiPPv@Base 4:4.6.2
 _ZN9KGameChat11qt_metacastEPKc@Base 4:4.6.2
 _ZN9KGameChat12setMessageIdEi@Base 4:4.6.2
 _ZN9KGameChat13returnPressedERK7QString@Base 4:4.6.2
 _ZN9KGameChat13setFromPlayerEP7KPlayer@Base 4:4.6.2
 _ZN9KGameChat13slotAddPlayerEP7KPlayer@Base 4:4.6.2
 _ZN9KGameChat14slotUnsetKGameEv@Base 4:4.6.2
 _ZN9KGameChat16slotRemovePlayerEP7KPlayer@Base 4:4.6.2
 _ZN9KGameChat16staticMetaObjectE@Base 4:4.6.2
 _ZN9KGameChat18slotReceiveMessageEiRK10QByteArrayjj@Base 4:4.6.2
 _ZN9KGameChat19slotPropertyChangedEP17KGamePropertyBaseP7KPlayer@Base 4:4.6.2
 _ZN9KGameChat25slotReceivePrivateMessageEiRK10QByteArrayjP7KPlayer@Base 4:4.6.2
 _ZN9KGameChat4initEP5KGamei@Base 4:4.6.2
 _ZN9KGameChat8setKGameEP5KGame@Base 4:4.6.2
 _ZN9KGameChatC1EP5KGameiP7KPlayerP7QWidgetP14KChatBaseModelP21KChatBaseItemDelegate@Base 4:4.6.2
 _ZN9KGameChatC1EP5KGameiP7QWidgetP14KChatBaseModelP21KChatBaseItemDelegate@Base 4:4.6.2
 _ZN9KGameChatC1EP7QWidget@Base 4:4.6.2
 _ZN9KGameChatC2EP5KGameiP7KPlayerP7QWidgetP14KChatBaseModelP21KChatBaseItemDelegate@Base 4:4.6.2
 _ZN9KGameChatC2EP5KGameiP7QWidgetP14KChatBaseModelP21KChatBaseItemDelegate@Base 4:4.6.2
 _ZN9KGameChatC2EP7QWidget@Base 4:4.6.2
 _ZN9KGameChatD0Ev@Base 4:4.6.2
 _ZN9KGameChatD1Ev@Base 4:4.6.2
 _ZN9KGameChatD2Ev@Base 4:4.6.2
 _ZN9KGameMisc10randomNameEv@Base 4:4.6.2
 _ZN9KGameMiscC1Ev@Base 4:4.6.2
 _ZN9KGameMiscC2Ev@Base 4:4.6.2
 _ZN9KGameMiscD1Ev@Base 4:4.6.2
 _ZN9KGameMiscD2Ev@Base 4:4.6.2
 _ZNK10KCardCache10frontThemeEv@Base 4:4.6.2
 _ZNK10KCardCache15defaultBackSizeEi@Base 4:4.6.2
 _ZNK10KCardCache16defaultFrontSizeERK9KCardInfo@Base 4:4.6.2
 _ZNK10KCardCache4sizeEv@Base 4:4.6.2
 _ZNK10KCardCache8backsideEi@Base 4:4.6.2
 _ZNK10KCardCache9backThemeEv@Base 4:4.6.2
 _ZNK10KCardCache9frontsideERK9KCardInfo@Base 4:4.6.2
 _ZNK10KGameClock10metaObjectEv@Base 4:4.6.2
 _ZNK10KGameClock10timeStringEv@Base 4:4.6.2
 _ZNK10KGameClock7secondsEv@Base 4:4.6.2
 _ZNK10KGameKeyIO10metaObjectEv@Base 4:4.6.2
 _ZNK10KGameKeyIO4rttiEv@Base 4:4.6.2
 _ZNK10KGameTheme13themePropertyERK7QString@Base 4:4.6.2
 _ZNK10KGameTheme4pathEv@Base 4:4.6.2
 _ZNK10KGameTheme7previewEv@Base 4:4.6.2
 _ZNK10KGameTheme8fileNameEv@Base 4:4.6.2
 _ZNK10KGameTheme8graphicsEv@Base 4:4.6.2
 _ZNK10KGameTheme8propertyERK7QString@Base 4:4.6.2
 _ZNK10KHighscore10metaObjectEv@Base 4:4.6.2
 _ZNK10KHighscore12readNumEntryEiRK7QStringi@Base 4:4.6.2
 _ZNK10KHighscore14highscoreGroupEv@Base 4:4.6.2
 _ZNK10KHighscore17readPropertyEntryEiRK7QStringRK8QVariant@Base 4:4.6.2
 _ZNK10KHighscore5groupEv@Base 4:4.6.2
 _ZNK10KHighscore6configEv@Base 4:4.6.2
 _ZNK10KHighscore8hasEntryEiRK7QString@Base 4:4.6.2
 _ZNK10KHighscore8hasTableEv@Base 4:4.6.2
 _ZNK10KHighscore8isLockedEv@Base 4:4.6.2
 _ZNK10KHighscore8readListERK7QStringi@Base 4:4.6.2
 _ZNK10KHighscore9groupListEv@Base 4:4.6.2
 _ZNK10KHighscore9readEntryEiRK7QStringS2_@Base 4:4.6.2
 _ZNK10KMessageIO10metaObjectEv@Base 4:4.6.2
 _ZNK11KCardDialog10metaObjectEv@Base 4:4.6.2
 _ZNK11KCardWidget10metaObjectEv@Base 4:4.6.2
 _ZNK11KCardWidget12saveSettingsER12KConfigGroup@Base 4:4.6.2
 _ZNK11KCardWidget18isFixedSizeAllowedEv@Base 4:4.6.2
 _ZNK11KCardWidget8backNameEv@Base 4:4.6.2
 _ZNK11KCardWidget8isLockedEv@Base 4:4.6.2
 _ZNK11KCardWidget9frontNameEv@Base 4:4.6.2
 _ZNK11KChatDialog10metaObjectEv@Base 4:4.6.2
 _ZNK11KChatDialog11maxMessagesEv@Base 4:4.6.2
 _ZNK11KChatDialog14systemNameFontEv@Base 4:4.6.2
 _ZNK11KChatDialog14systemTextFontEv@Base 4:4.6.2
 _ZNK11KChatDialog8nameFontEv@Base 4:4.6.2
 _ZNK11KChatDialog8textFontEv@Base 4:4.6.2
 _ZNK11KGameDialog10gameConfigEv@Base 4:4.6.2
 _ZNK11KGameDialog10metaObjectEv@Base 4:4.6.2
 _ZNK11KGameDialog13networkConfigEv@Base 4:4.6.2
 _ZNK12KGameLCDList10metaObjectEv@Base 4:4.6.2
 _ZNK12KGameMouseIO10metaObjectEv@Base 4:4.6.2
 _ZNK12KGameMouseIO4rttiEv@Base 4:4.6.2
 _ZNK12KGameNetwork10metaObjectEv@Base 4:4.6.2
 _ZNK12KGameNetwork13messageClientEv@Base 4:4.6.2
 _ZNK12KGameNetwork13messageServerEv@Base 4:4.6.2
 _ZNK12KGameNetwork21isOfferingConnectionsEv@Base 4:4.6.2
 _ZNK12KGameNetwork4portEv@Base 4:4.6.2
 _ZNK12KGameNetwork6cookieEv@Base 4:4.6.2
 _ZNK12KGameNetwork6gameIdEv@Base 4:4.6.2
 _ZNK12KGameNetwork7isAdminEv@Base 4:4.6.2
 _ZNK12KGameNetwork8hostNameEv@Base 4:4.6.2
 _ZNK12KGameNetwork8isMasterEv@Base 4:4.6.2
 _ZNK12KGameNetwork9isNetworkEv@Base 4:4.6.2
 _ZNK12KGameProcess10metaObjectEv@Base 4:4.6.2
 _ZNK12KScoreDialog10metaObjectEv@Base 4:4.6.2
 _ZNK13KExtHighscore4Item4readEjRK8QVariant@Base 4:4.6.2
 _ZNK13KExtHighscore4Item6prettyEjRK8QVariant@Base 4:4.6.2
 _ZNK13KExtHighscore5Score10isTheWorstEv@Base 4:4.6.2
 _ZNK13KExtHighscore5Score4dataERK7QString@Base 4:4.6.2
 _ZNK13KExtHighscore7Manager13gameTypeLabelEjNS0_9LabelTypeE@Base 4:4.6.2
 _ZNK13KExtHighscore7Manager14isStrictlyLessERKNS_5ScoreES3_@Base 4:4.6.2
 _ZNK13KExtHighscore7Manager17submitLegacyScoreERKNS_5ScoreE@Base 4:4.6.2
 _ZNK13KGameLCDClock10metaObjectEv@Base 4:4.6.2
 _ZNK13KGameLCDClock6prettyEv@Base 4:4.6.2
 _ZNK13KGameLCDClock7secondsEv@Base 4:4.6.2
 _ZNK13KGameProgress10metaObjectEv@Base 4:4.6.2
 _ZNK13KGameProgress10sizePolicyEv@Base 4:4.6.2
 _ZNK13KGameProgress11orientationEv@Base 4:4.6.2
 _ZNK13KGameProgress11textEnabledEv@Base 4:4.6.2
 _ZNK13KGameProgress15minimumSizeHintEv@Base 4:4.6.2
 _ZNK13KGameProgress5valueEv@Base 4:4.6.2
 _ZNK13KGameProgress6formatEv@Base 4:4.6.2
 _ZNK13KGameProgress7maximumEv@Base 4:4.6.2
 _ZNK13KGameProgress7minimumEv@Base 4:4.6.2
 _ZNK13KGameProgress8barColorEv@Base 4:4.6.2
 _ZNK13KGameProgress8barStyleEv@Base 4:4.6.2
 _ZNK13KGameProgress8sizeHintEv@Base 4:4.6.2
 _ZNK13KGameProgress9barPixmapEv@Base 4:4.6.2
 _ZNK13KGameRenderer10frameCountERK7QString@Base 4:4.6.2
 _ZNK13KGameRenderer10metaObjectEv@Base 4:4.6.2
 _ZNK13KGameRenderer10strategiesEv@Base 4:4.6.2
 _ZNK13KGameRenderer11frameSuffixEv@Base 4:4.6.2
 _ZNK13KGameRenderer12spriteExistsERK7QString@Base 4:4.6.2
 _ZNK13KGameRenderer12spritePixmapERK7QStringRK5QSizeiRK5QHashI6QColorS7_E@Base 4:4.6.2
 _ZNK13KGameRenderer14boundsOnSpriteERK7QStringi@Base 4:4.6.2
 _ZNK13KGameRenderer14frameBaseIndexEv@Base 4:4.6.2
 _ZNK13KGameRenderer18defaultPrimaryViewEv@Base 4:4.6.2
 _ZNK13KGameRenderer5themeEv@Base 4:4.6.2
 _ZNK13KGameRenderer9gameThemeEv@Base 4:4.6.2
 _ZNK13KGameSequence10metaObjectEv@Base 4:4.6.2
 _ZNK13KGameSequence13currentPlayerEv@Base 4:4.6.2
 _ZNK13KGameSequence4gameEv@Base 4:4.6.2
 _ZNK14KChatBaseModel10metaObjectEv@Base 4:4.6.2
 _ZNK14KChatBaseModel11messageFontEv@Base 4:4.6.2
 _ZNK14KChatBaseModel14systemNameFontEv@Base 4:4.6.2
 _ZNK14KChatBaseModel17systemMessageFontEv@Base 4:4.6.2
 _ZNK14KChatBaseModel4dataERK11QModelIndexi@Base 4:4.6.2
 _ZNK14KChatBaseModel8maxItemsEv@Base 4:4.6.2
 _ZNK14KChatBaseModel8nameFontEv@Base 4:4.6.2
 _ZNK14KChatBaseModel8rowCountERK11QModelIndex@Base 4:4.6.2
 _ZNK14KGamePopupItem10metaObjectEv@Base 4:4.6.2
 _ZNK14KGamePopupItem12boundingRectEv@Base 4:4.6.2
 _ZNK14KGamePopupItem14messageOpacityEv@Base 4:4.6.2
 _ZNK14KGamePopupItem14messageTimeoutEv@Base 4:4.6.2
 _ZNK14KGamePopupItem17hidesOnMouseClickEv@Base 4:4.6.2
 _ZNK14KGamePopupItem9sharpnessEv@Base 4:4.6.2
 _ZNK14KGameProcessIO10metaObjectEv@Base 4:4.6.2
 _ZNK14KGameProcessIO4rttiEv@Base 4:4.6.2
 _ZNK14KGameSvgDigits10metaObjectEv@Base 4:4.6.2
 _ZNK14KMessageClient10clientListEv@Base 4:4.6.2
 _ZNK14KMessageClient10metaObjectEv@Base 4:4.6.2
 _ZNK14KMessageClient11isConnectedEv@Base 4:4.6.2
 _ZNK14KMessageClient19delayedMessageCountEv@Base 4:4.6.2
 _ZNK14KMessageClient2idEv@Base 4:4.6.2
 _ZNK14KMessageClient7adminIdEv@Base 4:4.6.2
 _ZNK14KMessageClient7isAdminEv@Base 4:4.6.2
 _ZNK14KMessageClient8peerNameEv@Base 4:4.6.2
 _ZNK14KMessageClient8peerPortEv@Base 4:4.6.2
 _ZNK14KMessageClient9isNetworkEv@Base 4:4.6.2
 _ZNK14KMessageServer10findClientEj@Base 4:4.6.2
 _ZNK14KMessageServer10maxClientsEv@Base 4:4.6.2
 _ZNK14KMessageServer10metaObjectEv@Base 4:4.6.2
 _ZNK14KMessageServer10serverPortEv@Base 4:4.6.2
 _ZNK14KMessageServer11clientCountEv@Base 4:4.6.2
 _ZNK14KMessageServer18uniqueClientNumberEv@Base 4:4.6.2
 _ZNK14KMessageServer21isOfferingConnectionsEv@Base 4:4.6.2
 _ZNK14KMessageServer7adminIDEv@Base 4:4.6.2
 _ZNK14KMessageServer9clientIDsEv@Base 4:4.6.2
 _ZNK15KGameCanvasItem16absolutePositionEv@Base 4:4.6.2
 _ZNK15KGameCanvasItem7layeredEv@Base 4:4.6.2
 _ZNK15KGameCanvasText15offsetToDrawPosEv@Base 4:4.6.2
 _ZNK15KGameCanvasText4rectEv@Base 4:4.6.2
 _ZNK15KGameComputerIO10metaObjectEv@Base 4:4.6.2
 _ZNK15KGameComputerIO14reactionPeriodEv@Base 4:4.6.2
 _ZNK15KGameComputerIO4rttiEv@Base 4:4.6.2
 _ZNK16KGameCanvasDummy4rectEv@Base 4:4.6.2
 _ZNK16KGameCanvasGroup14canvasPositionEv@Base 4:4.6.2
 _ZNK16KGameCanvasGroup4rectEv@Base 4:4.6.2
 _ZNK16KGameDebugDialog10metaObjectEv@Base 4:4.6.2
 _ZNK16KGameSvgDocument11currentNodeEv@Base 4:4.6.2
 _ZNK16KGameSvgDocument11svgFilenameEv@Base 4:4.6.2
 _ZNK16KGameSvgDocument13stylePropertyERK7QString@Base 4:4.6.2
 _ZNK16KGameSvgDocument15linearGradientsEv@Base 4:4.6.2
 _ZNK16KGameSvgDocument15nodeToByteArrayEv@Base 4:4.6.2
 _ZNK16KGameSvgDocument15radialGradientsEv@Base 4:4.6.2
 _ZNK16KGameSvgDocument15stylePropertiesEv@Base 4:4.6.2
 _ZNK16KGameSvgDocument15transformMatrixEv@Base 4:4.6.2
 _ZNK16KGameSvgDocument3defEv@Base 4:4.6.2
 _ZNK16KGameSvgDocument4defsEv@Base 4:4.6.2
 _ZNK16KGameSvgDocument5styleEv@Base 4:4.6.2
 _ZNK16KGameSvgDocument8patternsEv@Base 4:4.6.2
 _ZNK16KGameSvgDocument9nodeToSvgEv@Base 4:4.6.2
 _ZNK16KGameSvgDocument9transformEv@Base 4:4.6.2
 _ZNK17KGameCanvasPixmap4rectEv@Base 4:4.6.2
 _ZNK17KGameCanvasWidget10metaObjectEv@Base 4:4.6.2
 _ZNK17KGameCanvasWidget14canvasPositionEv@Base 4:4.6.2
 _ZNK17KGameDialogConfig10metaObjectEv@Base 4:4.6.2
 _ZNK17KGameDialogConfig4gameEv@Base 4:4.6.2
 _ZNK17KGameDialogConfig5adminEv@Base 4:4.6.2
 _ZNK17KGameDialogConfig5ownerEv@Base 4:4.6.2
 _ZNK18KGameCanvasPicture4rectEv@Base 4:4.6.2
 _ZNK18KGameThemeSelector10metaObjectEv@Base 4:4.6.2
 _ZNK19KGameCanvasAbstract6itemAtERK6QPoint@Base 4:4.6.2
 _ZNK19KGameCanvasAbstract7itemsAtERK6QPoint@Base 4:4.6.2
 _ZNK19KGameRendererClient10frameCountEv@Base 4:4.6.2
 _ZNK19KGameRendererClient10renderSizeEv@Base 4:4.6.2
 _ZNK19KGameRendererClient12customColorsEv@Base 4:4.6.2
 _ZNK19KGameRendererClient5frameEv@Base 4:4.6.2
 _ZNK19KGameRendererClient8rendererEv@Base 4:4.6.2
 _ZNK19KGameRendererClient9spriteKeyEv@Base 4:4.6.2
 _ZNK20KGameCanvasRectangle4rectEv@Base 4:4.6.2
 _ZNK20KGamePropertyHandler10metaObjectEv@Base 4:4.6.2
 _ZNK20KGamePropertyHandler12propertyNameEi@Base 4:4.6.2
 _ZNK20KGamePropertyHandler2idEv@Base 4:4.6.2
 _ZNK20KGamePropertyHandler4dictEv@Base 4:4.6.2
 _ZNK21KChatBaseItemDelegate10metaObjectEv@Base 4:4.6.2
 _ZNK21KChatBaseItemDelegate5paintEP8QPainterRK20QStyleOptionViewItemRK11QModelIndex@Base 4:4.6.2
 _ZNK21KChatBaseItemDelegate5paintEP8QPainterRK20QStyleOptionViewItemRK11QModelIndexRK7QStringSA_@Base 4:4.6.2
 _ZNK21KChatBaseItemDelegate8sizeHintERK20QStyleOptionViewItemRK11QModelIndex@Base 4:4.6.2
 _ZNK21KChatBaseItemDelegate8sizeHintERK20QStyleOptionViewItemRK11QModelIndexRK7QStringS8_@Base 4:4.6.2
 _ZNK22KGameCanvasTiledPixmap4rectEv@Base 4:4.6.2
 _ZNK23KGameRenderedObjectItem10metaObjectEv@Base 4:4.6.2
 _ZNK23KGameRenderedObjectItem10opaqueAreaEv@Base 4:4.6.2
 _ZNK23KGameRenderedObjectItem11primaryViewEv@Base 4:4.6.2
 _ZNK23KGameRenderedObjectItem12boundingRectEv@Base 4:4.6.2
 _ZNK23KGameRenderedObjectItem12isObscuredByEPK13QGraphicsItem@Base 4:4.6.2
 _ZNK23KGameRenderedObjectItem5shapeEv@Base 4:4.6.2
 _ZNK23KGameRenderedObjectItem6offsetEv@Base 4:4.6.2
 _ZNK23KGameRenderedObjectItem8containsERK7QPointF@Base 4:4.6.2
 _ZNK23KGameRenderedObjectItem9fixedSizeEv@Base 4:4.6.2
 _ZNK24KGameDialogNetworkConfig10metaObjectEv@Base 4:4.6.2
 _ZNK5KChat10metaObjectEv@Base 4:4.6.2
 _ZNK5KChat15autoAddMessagesEv@Base 4:4.6.2
 _ZNK5KChat6fromIdEv@Base 4:4.6.2
 _ZNK5KChat6playerEi@Base 4:4.6.2
 _ZNK5KChat8fromNameEv@Base 4:4.6.2
 _ZNK5KGame10findPlayerEj@Base 4:4.6.2
 _ZNK5KGame10gameStatusEv@Base 4:4.6.2
 _ZNK5KGame10maxPlayersEv@Base 4:4.6.2
 _ZNK5KGame10metaObjectEv@Base 4:4.6.2
 _ZNK5KGame10minPlayersEv@Base 4:4.6.2
 _ZNK5KGame10playerListEv@Base 4:4.6.2
 _ZNK5KGame11dataHandlerEv@Base 4:4.6.2
 _ZNK5KGame11playerCountEv@Base 4:4.6.2
 _ZNK5KGame12findPropertyEi@Base 4:4.6.2
 _ZNK5KGame12gameSequenceEv@Base 4:4.6.2
 _ZNK5KGame18inactivePlayerListEv@Base 4:4.6.2
 _ZNK5KGame6policyEv@Base 4:4.6.2
 _ZNK5KGame6randomEv@Base 4:4.6.2
 _ZNK5KGame9isRunningEv@Base 4:4.6.2
 _ZNK7KGameIO10metaObjectEv@Base 4:4.6.2
 _ZNK7KGameIO4gameEv@Base 4:4.6.2
 _ZNK7KGameIO6playerEv@Base 4:4.6.2
 _ZNK7KPlayer10asyncInputEv@Base 4:4.6.2
 _ZNK7KPlayer10findRttiIOEi@Base 4:4.6.2
 _ZNK7KPlayer10metaObjectEv@Base 4:4.6.2
 _ZNK7KPlayer12findPropertyEi@Base 4:4.6.2
 _ZNK7KPlayer13networkPlayerEv@Base 4:4.6.2
 _ZNK7KPlayer15networkPriorityEv@Base 4:4.6.2
 _ZNK7KPlayer2idEv@Base 4:4.6.2
 _ZNK7KPlayer4gameEv@Base 4:4.6.2
 _ZNK7KPlayer4nameEv@Base 4:4.6.2
 _ZNK7KPlayer4rttiEv@Base 4:4.6.2
 _ZNK7KPlayer5groupEv@Base 4:4.6.2
 _ZNK7KPlayer6myTurnEv@Base 4:4.6.2
 _ZNK7KPlayer6userIdEv@Base 4:4.6.2
 _ZNK7KPlayer7hasRttiEi@Base 4:4.6.2
 _ZNK7KPlayer8isActiveEv@Base 4:4.6.2
 _ZNK7KPlayer9isVirtualEv@Base 4:4.6.2
 _ZNK8KGameLCD10metaObjectEv@Base 4:4.6.2
 _ZNK9KCardInfo4cardEv@Base 4:4.6.2
 _ZNK9KCardInfo4suitEv@Base 4:4.6.2
 _ZNK9KCardInfo7pngNameEv@Base 4:4.6.2
 _ZNK9KCardInfo7svgNameEv@Base 4:4.6.2
 _ZNK9KCardInfoeqERKS_@Base 4:4.6.2
 _ZNK9KChatBase10metaObjectEv@Base 4:4.6.2
 _ZNK9KChatBase11messageFontEv@Base 4:4.6.2
 _ZNK9KChatBase12comboBoxItemERK7QString@Base 4:4.6.2
 _ZNK9KChatBase12sendingEntryEv@Base 4:4.6.2
 _ZNK9KChatBase13acceptMessageEv@Base 4:4.6.2
 _ZNK9KChatBase14systemNameFontEv@Base 4:4.6.2
 _ZNK9KChatBase17systemMessageFontEv@Base 4:4.6.2
 _ZNK9KChatBase6nextIdEv@Base 4:4.6.2
 _ZNK9KChatBase7indexAtERK6QPoint@Base 4:4.6.2
 _ZNK9KChatBase8maxItemsEv@Base 4:4.6.2
 _ZNK9KChatBase8nameFontEv@Base 4:4.6.2
 _ZNK9KChatBase9findIndexEi@Base 4:4.6.2
 _ZNK9KGameChat10fromPlayerEv@Base 4:4.6.2
 _ZNK9KGameChat10metaObjectEv@Base 4:4.6.2
 _ZNK9KGameChat16isToGroupMessageEi@Base 4:4.6.2
 _ZNK9KGameChat17isToPlayerMessageEi@Base 4:4.6.2
 _ZNK9KGameChat17sendToPlayerEntryERK7QString@Base 4:4.6.2
 _ZNK9KGameChat18isSendToAllMessageEi@Base 4:4.6.2
 _ZNK9KGameChat4gameEv@Base 4:4.6.2
 _ZNK9KGameChat8fromNameEv@Base 4:4.6.2
 _ZNK9KGameChat8playerIdEi@Base 4:4.6.2
 _ZNK9KGameChat9hasPlayerEi@Base 4:4.6.2
 _ZNK9KGameChat9messageIdEv@Base 4:4.6.2
 _ZNK9KGameChat9sendingIdEi@Base 4:4.6.2
 _ZTI10KGameClock@Base 4:4.6.2
 _ZTI10KGameKeyIO@Base 4:4.6.2
 _ZTI10KGameTheme@Base 4:4.6.2
 _ZTI10KHighscore@Base 4:4.6.2
 _ZTI10KMessageIO@Base 4:4.6.2
 _ZTI11KCardDialog@Base 4:4.6.2
 _ZTI11KCardWidget@Base 4:4.6.2
 _ZTI11KChatDialog@Base 4:4.6.2
 _ZTI11KGameDialog@Base 4:4.6.2
 _ZTI12KGameLCDList@Base 4:4.6.2
 _ZTI12KGameMouseIO@Base 4:4.6.2
 _ZTI12KGameNetwork@Base 4:4.6.2
 _ZTI12KGameProcess@Base 4:4.6.2
 _ZTI12KScoreDialog@Base 4:4.6.2
 _ZTI13KGameLCDClock@Base 4:4.6.2
 _ZTI13KGameProgress@Base 4:4.6.2
 _ZTI13KGameRenderer@Base 4:4.6.2
 _ZTI13KGameSequence@Base 4:4.6.2
 _ZTI14KChatBaseModel@Base 4:4.6.2
 _ZTI14KGamePopupItem@Base 4:4.6.2
 _ZTI14KGameProcessIO@Base 4:4.6.2
 _ZTI14KGameSvgDigits@Base 4:4.6.2
 _ZTI14KMessageClient@Base 4:4.6.2
 _ZTI14KMessageServer@Base 4:4.6.2
 _ZTI15KGameCanvasItem@Base 4:4.6.2
 _ZTI15KGameCanvasText@Base 4:4.6.2
 _ZTI15KGameComputerIO@Base 4:4.6.2
 _ZTI15KGameDifficulty@Base 4:4.6.2
 _ZTI16KChatBaseMessage@Base 4:4.6.2
 _ZTI16KGameCanvasDummy@Base 4:4.6.2
 _ZTI16KGameCanvasGroup@Base 4:4.6.2
 _ZTI16KGameDebugDialog@Base 4:4.6.2
 _ZTI16KGameSvgDocument@Base 4:4.6.2
 _ZTI17KGameCanvasPixmap@Base 4:4.6.2
 _ZTI17KGameCanvasWidget@Base 4:4.6.2
 _ZTI17KGameDialogConfig@Base 4:4.6.2
 _ZTI17KGamePropertyBase@Base 4:4.6.2
 _ZTI17KGameRenderedItem@Base 4:4.6.2
 _ZTI18KGameCanvasAdapter@Base 4:4.6.2
 _ZTI18KGameCanvasPicture@Base 4:4.6.2
 _ZTI18KGameThemeSelector@Base 4:4.6.2
 _ZTI19KGameCanvasAbstract@Base 4:4.6.2
 _ZTI19KGameRendererClient@Base 4:4.6.2
 _ZTI20KGameCanvasRectangle@Base 4:4.6.2
 _ZTI20KGamePropertyHandler@Base 4:4.6.2
 _ZTI21KChatBaseItemDelegate@Base 4:4.6.2
 _ZTI22KGameCanvasTiledPixmap@Base 4:4.6.2
 _ZTI23KGameRenderedObjectItem@Base 4:4.6.2
 _ZTI24KGameDialogNetworkConfig@Base 4:4.6.2
 _ZTI25KGameCanvasRenderedPixmap@Base 4:4.6.2
 _ZTI5KChat@Base 4:4.6.2
 _ZTI5KGame@Base 4:4.6.2
 _ZTI7KGameIO@Base 4:4.6.2
 _ZTI7KPlayer@Base 4:4.6.2
 _ZTI8KGameLCD@Base 4:4.6.2
 _ZTI9KChatBase@Base 4:4.6.2
 _ZTI9KGameChat@Base 4:4.6.2
 _ZTIN13KExtHighscore4ItemE@Base 4:4.6.2
 _ZTIN13KExtHighscore7ManagerE@Base 4:4.6.2
 _ZTIP17KGamePropertyBase@Base 4:4.6.2
 _ZTS10KGameClock@Base 4:4.6.2
 _ZTS10KGameKeyIO@Base 4:4.6.2
 _ZTS10KGameTheme@Base 4:4.6.2
 _ZTS10KHighscore@Base 4:4.6.2
 _ZTS10KMessageIO@Base 4:4.6.2
 _ZTS11KCardDialog@Base 4:4.6.2
 _ZTS11KCardWidget@Base 4:4.6.2
 _ZTS11KChatDialog@Base 4:4.6.2
 _ZTS11KGameDialog@Base 4:4.6.2
 _ZTS12KGameLCDList@Base 4:4.6.2
 _ZTS12KGameMouseIO@Base 4:4.6.2
 _ZTS12KGameNetwork@Base 4:4.6.2
 _ZTS12KGameProcess@Base 4:4.6.2
 _ZTS12KScoreDialog@Base 4:4.6.2
 _ZTS13KGameLCDClock@Base 4:4.6.2
 _ZTS13KGameProgress@Base 4:4.6.2
 _ZTS13KGameRenderer@Base 4:4.6.2
 _ZTS13KGameSequence@Base 4:4.6.2
 _ZTS14KChatBaseModel@Base 4:4.6.2
 _ZTS14KGamePopupItem@Base 4:4.6.2
 _ZTS14KGameProcessIO@Base 4:4.6.2
 _ZTS14KGameSvgDigits@Base 4:4.6.2
 _ZTS14KMessageClient@Base 4:4.6.2
 _ZTS14KMessageServer@Base 4:4.6.2
 _ZTS15KGameCanvasItem@Base 4:4.6.2
 _ZTS15KGameCanvasText@Base 4:4.6.2
 _ZTS15KGameComputerIO@Base 4:4.6.2
 _ZTS15KGameDifficulty@Base 4:4.6.2
 _ZTS16KChatBaseMessage@Base 4:4.6.2
 _ZTS16KGameCanvasDummy@Base 4:4.6.2
 _ZTS16KGameCanvasGroup@Base 4:4.6.2
 _ZTS16KGameDebugDialog@Base 4:4.6.2
 _ZTS16KGameSvgDocument@Base 4:4.6.2
 _ZTS17KGameCanvasPixmap@Base 4:4.6.2
 _ZTS17KGameCanvasWidget@Base 4:4.6.2
 _ZTS17KGameDialogConfig@Base 4:4.6.2
 _ZTS17KGamePropertyBase@Base 4:4.6.2
 _ZTS17KGameRenderedItem@Base 4:4.6.2
 _ZTS18KGameCanvasAdapter@Base 4:4.6.2
 _ZTS18KGameCanvasPicture@Base 4:4.6.2
 _ZTS18KGameThemeSelector@Base 4:4.6.2
 _ZTS19KGameCanvasAbstract@Base 4:4.6.2
 _ZTS19KGameRendererClient@Base 4:4.6.2
 _ZTS20KGameCanvasRectangle@Base 4:4.6.2
 _ZTS20KGamePropertyHandler@Base 4:4.6.2
 _ZTS21KChatBaseItemDelegate@Base 4:4.6.2
 _ZTS22KGameCanvasTiledPixmap@Base 4:4.6.2
 _ZTS23KGameRenderedObjectItem@Base 4:4.6.2
 _ZTS24KGameDialogNetworkConfig@Base 4:4.6.2
 _ZTS25KGameCanvasRenderedPixmap@Base 4:4.6.2
 _ZTS5KChat@Base 4:4.6.2
 _ZTS5KGame@Base 4:4.6.2
 _ZTS7KGameIO@Base 4:4.6.2
 _ZTS7KPlayer@Base 4:4.6.2
 _ZTS8KGameLCD@Base 4:4.6.2
 _ZTS9KChatBase@Base 4:4.6.2
 _ZTS9KGameChat@Base 4:4.6.2
 _ZTSN13KExtHighscore4ItemE@Base 4:4.6.2
 _ZTSN13KExtHighscore7ManagerE@Base 4:4.6.2
 _ZTSP17KGamePropertyBase@Base 4:4.6.2
 _ZTV10KGameClock@Base 4:4.6.2
 _ZTV10KGameKeyIO@Base 4:4.6.2
 _ZTV10KGameTheme@Base 4:4.6.2
 _ZTV10KHighscore@Base 4:4.6.2
 _ZTV10KMessageIO@Base 4:4.6.2
 _ZTV11KCardDialog@Base 4:4.6.2
 _ZTV11KCardWidget@Base 4:4.6.2
 _ZTV11KChatDialog@Base 4:4.6.2
 _ZTV11KGameDialog@Base 4:4.6.2
 _ZTV12KGameLCDList@Base 4:4.6.2
 _ZTV12KGameMouseIO@Base 4:4.6.2
 _ZTV12KGameNetwork@Base 4:4.6.2
 _ZTV12KGameProcess@Base 4:4.6.2
 _ZTV12KScoreDialog@Base 4:4.6.2
 _ZTV13KGameLCDClock@Base 4:4.6.2
 _ZTV13KGameProgress@Base 4:4.6.2
 _ZTV13KGameRenderer@Base 4:4.6.2
 _ZTV13KGameSequence@Base 4:4.6.2
 _ZTV14KChatBaseModel@Base 4:4.6.2
 _ZTV14KGamePopupItem@Base 4:4.6.2
 _ZTV14KGameProcessIO@Base 4:4.6.2
 _ZTV14KGameSvgDigits@Base 4:4.6.2
 _ZTV14KMessageClient@Base 4:4.6.2
 _ZTV14KMessageServer@Base 4:4.6.2
 _ZTV15KGameCanvasItem@Base 4:4.6.2
 _ZTV15KGameCanvasText@Base 4:4.6.2
 _ZTV15KGameComputerIO@Base 4:4.6.2
 _ZTV15KGameDifficulty@Base 4:4.6.2
 _ZTV16KChatBaseMessage@Base 4:4.6.2
 _ZTV16KGameCanvasDummy@Base 4:4.6.2
 _ZTV16KGameCanvasGroup@Base 4:4.6.2
 _ZTV16KGameDebugDialog@Base 4:4.6.2
 _ZTV16KGameSvgDocument@Base 4:4.6.2
 _ZTV17KGameCanvasPixmap@Base 4:4.6.2
 _ZTV17KGameCanvasWidget@Base 4:4.6.2
 _ZTV17KGameDialogConfig@Base 4:4.6.2
 _ZTV17KGamePropertyBase@Base 4:4.6.2
 _ZTV17KGameRenderedItem@Base 4:4.6.2
 _ZTV18KGameCanvasAdapter@Base 4:4.6.2
 _ZTV18KGameCanvasPicture@Base 4:4.6.2
 _ZTV18KGameThemeSelector@Base 4:4.6.2
 _ZTV19KGameCanvasAbstract@Base 4:4.6.2
 _ZTV19KGameRendererClient@Base 4:4.6.2
 _ZTV20KGameCanvasRectangle@Base 4:4.6.2
 _ZTV20KGamePropertyHandler@Base 4:4.6.2
 _ZTV21KChatBaseItemDelegate@Base 4:4.6.2
 _ZTV22KGameCanvasTiledPixmap@Base 4:4.6.2
 _ZTV23KGameRenderedObjectItem@Base 4:4.6.2
 _ZTV24KGameDialogNetworkConfig@Base 4:4.6.2
 _ZTV25KGameCanvasRenderedPixmap@Base 4:4.6.2
 _ZTV5KChat@Base 4:4.6.2
 _ZTV5KGame@Base 4:4.6.2
 _ZTV7KGameIO@Base 4:4.6.2
 _ZTV7KPlayer@Base 4:4.6.2
 _ZTV8KGameLCD@Base 4:4.6.2
 _ZTV9KChatBase@Base 4:4.6.2
 _ZTV9KGameChat@Base 4:4.6.2
 _ZTVN13KExtHighscore4ItemE@Base 4:4.6.2
 _ZTVN13KExtHighscore7ManagerE@Base 4:4.6.2
 (c++)"non-virtual thunk to KCardWidget::~KCardWidget()@Base" 4:4.6.2
 (c++)"non-virtual thunk to KChat::~KChat()@Base" 4:4.6.2
 (c++)"non-virtual thunk to KChatBase::~KChatBase()@Base" 4:4.6.2
 (c++)"non-virtual thunk to KChatDialog::~KChatDialog()@Base" 4:4.6.2
 (c++)"non-virtual thunk to KGameCanvasGroup::canvasPosition() const@Base" 4:4.6.2
 (c++)"non-virtual thunk to KGameCanvasGroup::ensureAnimating()@Base" 4:4.6.2
 (c++)"non-virtual thunk to KGameCanvasGroup::ensurePendingUpdate()@Base" 4:4.6.2
 (c++)"non-virtual thunk to KGameCanvasGroup::invalidate(QRect const&, bool)@Base" 4:4.6.2
 (c++)"non-virtual thunk to KGameCanvasGroup::invalidate(QRegion const&, bool)@Base" 4:4.6.2
 (c++)"non-virtual thunk to KGameCanvasGroup::topLevelCanvas()@Base" 4:4.6.2
 (c++)"non-virtual thunk to KGameCanvasGroup::~KGameCanvasGroup()@Base" 4:4.6.2
 (c++)"non-virtual thunk to KGameCanvasRenderedPixmap::receivePixmap(QPixmap const&)@Base" 4:4.6.2
 (c++)"non-virtual thunk to KGameCanvasWidget::canvasPosition() const@Base" 4:4.6.2
 (c++)"non-virtual thunk to KGameCanvasWidget::ensureAnimating()@Base" 4:4.6.2
 (c++)"non-virtual thunk to KGameCanvasWidget::ensurePendingUpdate()@Base" 4:4.6.2
 (c++)"non-virtual thunk to KGameCanvasWidget::invalidate(QRect const&, bool)@Base" 4:4.6.2
 (c++)"non-virtual thunk to KGameCanvasWidget::invalidate(QRegion const&, bool)@Base" 4:4.6.2
 (c++)"non-virtual thunk to KGameCanvasWidget::topLevelCanvas()@Base" 4:4.6.2
 (c++)"non-virtual thunk to KGameCanvasWidget::~KGameCanvasWidget()@Base" 4:4.6.2
 (c++)"non-virtual thunk to KGameChat::~KGameChat()@Base" 4:4.6.2
 (c++)"non-virtual thunk to KGameDebugDialog::~KGameDebugDialog()@Base" 4:4.6.2
 (c++)"non-virtual thunk to KGameDialog::~KGameDialog()@Base" 4:4.6.2
 (c++)"non-virtual thunk to KGameDialogConfig::~KGameDialogConfig()@Base" 4:4.6.2
 (c++)"non-virtual thunk to KGameDialogNetworkConfig::~KGameDialogNetworkConfig()@Base" 4:4.6.2
 (c++)"non-virtual thunk to KGameLCD::~KGameLCD()@Base" 4:4.6.2
 (c++)"non-virtual thunk to KGameLCDClock::~KGameLCDClock()@Base" 4:4.6.2
 (c++)"non-virtual thunk to KGameLCDList::~KGameLCDList()@Base" 4:4.6.2
 (c++)"non-virtual thunk to KGamePopupItem::boundingRect() const@Base" 4:4.6.2
 (c++)"non-virtual thunk to KGamePopupItem::hoverEnterEvent(QGraphicsSceneHoverEvent*)@Base" 4:4.6.2
 (c++)"non-virtual thunk to KGamePopupItem::hoverLeaveEvent(QGraphicsSceneHoverEvent*)@Base" 4:4.6.2
 (c++)"non-virtual thunk to KGamePopupItem::mousePressEvent(QGraphicsSceneMouseEvent*)@Base" 4:4.6.2
 (c++)"non-virtual thunk to KGamePopupItem::mouseReleaseEvent(QGraphicsSceneMouseEvent*)@Base" 4:4.6.2
 (c++)"non-virtual thunk to KGamePopupItem::paint(QPainter*, QStyleOptionGraphicsItem const*, QWidget*)@Base" 4:4.6.2
 (c++)"non-virtual thunk to KGamePopupItem::~KGamePopupItem()@Base" 4:4.6.2
 (c++)"non-virtual thunk to KGameProgress::~KGameProgress()@Base" 4:4.6.2
 (c++)"non-virtual thunk to KGameRenderedItem::receivePixmap(QPixmap const&)@Base" 4:4.6.2
 (c++)"non-virtual thunk to KGameRenderedItem::~KGameRenderedItem()@Base" 4:4.6.2
 (c++)"non-virtual thunk to KGameRenderedObjectItem::boundingRect() const@Base" 4:4.6.2
 (c++)"non-virtual thunk to KGameRenderedObjectItem::contains(QPointF const&) const@Base" 4:4.6.2
 (c++)"non-virtual thunk to KGameRenderedObjectItem::isObscuredBy(QGraphicsItem const*) const@Base" 4:4.6.2
 (c++)"non-virtual thunk to KGameRenderedObjectItem::opaqueArea() const@Base" 4:4.6.2
 (c++)"non-virtual thunk to KGameRenderedObjectItem::paint(QPainter*, QStyleOptionGraphicsItem const*, QWidget*)@Base" 4:4.6.2
 (c++)"non-virtual thunk to KGameRenderedObjectItem::receivePixmap(QPixmap const&)@Base" 4:4.6.2
 (c++)"non-virtual thunk to KGameRenderedObjectItem::shape() const@Base" 4:4.6.2
 (c++)"non-virtual thunk to KGameRenderedObjectItem::~KGameRenderedObjectItem()@Base" 4:4.6.2
 (c++)"non-virtual thunk to KGameThemeSelector::~KGameThemeSelector()@Base" 4:4.6.2
 (c++)"non-virtual thunk to KScoreDialog::~KScoreDialog()@Base" 4:4.6.2
